(lp1
(lp2
(lp3
S'hello'
p4
aI2
aa(lp5
S'hi'
p6
aI2
aa(lp7
(lp8
S'how'
p9
aS'are'
p10
aS'you'
p11
aaI1
aa(lp12
I0
aI17
aa(lp13
S'im'
p14
aI4
aa(lp15
S'very'
p16
aI3
aa(lp17
S'well'
p18
aI1
aa(lp19
S'thanks'
p20
aI1
aa(lp21
(lp22
S'how'
p23
aS'are'
p24
aS'you'
p25
aS'feeling'
p26
aS'today'
p27
aaI1
aa(lp28
I1
aI2
aa(lp29
S'not'
p30
aI5
aa(lp31
S'that'
p32
aI3
aa(lp33
S'great'
p34
aI1
aa(lp35
(lp36
g30
ag32
ag34
aaI1
aa(lp37
I3
aI1
aa(lp38
S'thats'
p39
aI3
aa(lp40
S'a'
aI7
aa(lp41
S'shame'
p42
aI1
aa(lp43
(lp44
g39
aS'a'
ag42
aaI1
aa(lp45
I4
aI1
aa(lp46
S'how'
p47
aI1
aa(lp48
S'are'
p49
aI5
aa(lp50
S'you'
p51
aI15
aa(lp52
(lp53
S'how'
p54
aS'are'
p55
aS'you'
p56
aS'feeling'
p57
aaI1
aa(lp58
I5
aI1
aa(lp59
S'feeling'
p60
aI1
aa(lp61
S'fine'
p62
aI1
aa(lp63
(lp64
S'same'
p65
aS'for'
p66
aS'me'
p67
aaI1
aa(lp68
I6
aI1
aa(lp69
S'do'
p70
aI9
aa(lp71
S'like'
p72
aI8
aa(lp73
S'fish'
p74
aI2
aa(lp75
(lp76
S'im'
p77
aS'fine'
p78
aS'thanks'
p79
aS'for'
p80
aS'asking'
p81
aaI1
aa(lp82
I9
aI1
aa(lp83
(lp84
S'same'
p85
aS'here'
p86
aaI1
aa(lp87
I13
aI1
aa(lp88
S'the'
p89
aI6
aa(lp90
S'weathers'
p91
aI1
aa(lp92
S'quite'
p93
aI2
aa(lp94
S'nice'
p95
aI1
aa(lp96
S'today'
p97
aI1
aa(lp98
S'isnt'
p99
aI1
aa(lp100
S'it'
p101
aI6
aa(lp102
(lp103
S'me'
p104
aS'neither'
p105
aaI1
aa(lp106
I14
aI1
aa(lp107
S'cheese'
p108
aI1
aa(lp109
(lp110
S'im'
p111
aS'feeling'
p112
aS'a'
aS'little'
p113
aS'down'
p114
aaI1
aa(lp115
I11
aI1
aa(lp116
F0.19428571428571428
aI1
aa(lp117
S'pity'
p118
aI1
aa(lp119
(lp120
S'i'
aS'like'
p121
aS'cheese'
p122
aS'do'
p123
aS'you'
p124
aaI1
aa(lp125
I20
aI1
aa(lp126
F0.1878787878787879
aI1
aa(lp127
S'of'
p128
aI3
aa(lp129
S'course'
p130
aI1
aa(lp131
(lp132
S'yes'
p133
aS'its'
p134
aS'wonderful'
p135
aaI1
aa(lp136
I22
aI1
aa(lp137
S'i'
aI12
aa(lp138
S'dont'
p139
aI5
aa(lp140
S'though'
p141
aI1
aa(lp142
(lp143
g128
ag130
aS'not'
p144
aaI1
aa(lp145
I23
aI1
aa(lp146
F0.3247863247863248
aI1
aa(lp147
S'indeed'
p148
aI3
aa(lp149
(lp150
S'its'
p151
aS'rather'
p152
aS'chilly'
p153
aS'dont'
p154
aS'you'
p155
aS'think'
p156
aaI1
aa(lp157
I16
aI1
aa(lp158
F0.3543913713405239
aI1
aa(lp159
S'who'
p160
aI1
aa(lp161
S'cares'
p162
aI1
aa(lp163
S'about'
p164
aI6
aa(lp165
S'weather'
p166
aI2
aa(lp167
(lp168
S'im'
p169
aS'not'
p170
aS'very'
p171
aS'happy'
p172
aS'at'
p173
aS'all'
p174
aaI1
aa(lp175
I30
aI1
aa(lp176
F0.35959595959595958
aI1
aa(lp177
S'sorry'
p178
aI2
aa(lp179
S'for'
p180
aI1
aa(lp181
S'making'
p182
aI1
aa(lp183
S'unhappy'
p184
aI1
aa(lp185
(lp186
g160
ag162
ag164
aS'the'
p187
ag166
aaI1
aa(lp188
I31
aI1
aa(lp189
S'guess'
p190
aI2
aa(lp191
S'we'
p192
aI1
aa(lp193
S'should'
p194
aI1
aa(lp195
S'talk'
p196
aI1
aa(lp197
S'something'
p198
aI1
aa(lp199
S'else'
p200
aI1
aa(lp201
S'then'
p202
aI1
aa(lp203
(lp204
S'sorry'
p205
aS'for'
p206
aS'making'
p207
aS'you'
p208
aS'unhappy'
p209
aaI1
aa(lp210
I32
aI1
aa(lp211
F0.19811320754716982
aI1
aa(lp212
S'its'
p213
aI3
aa(lp214
S'tad'
p215
aI1
aa(lp216
S'chilly'
p217
aI1
aa(lp218
(lp219
S'nice'
p220
aS'day'
p221
aS'isnt'
p222
aS'it'
p223
aaI1
aa(lp224
I36
aI1
aa(lp225
F0.22222222222222221
aI2
aa(lp226
S'is'
p227
aI6
aa(lp228
(lp229
S'same'
p230
aS'with'
p231
aS'me'
p232
aaI1
aa(lp233
I40
aI1
aa(lp234
S'pi'
p235
aI3
aa(lp236
S'useful'
p237
aI4
aa(lp238
S'number'
p239
aI1
aa(lp240
S'equals'
p241
aI1
aa(lp242
S'approximately'
p243
aI1
aa(lp244
(lp245
S'glad'
p246
aS'to'
p247
aS'hear'
p248
aS'it'
p249
aaI1
aa(lp250
I53
aI1
aa(lp251
F0.24427480916030533
aI1
aa(lp252
S'python'
p253
aI2
aa(lp254
S'wonderful'
p255
aI1
aa(lp256
S'language'
p257
aI1
aa(lp258
S'to'
p259
aI7
aa(lp260
S'code'
p261
aI2
aa(lp262
S'in'
p263
aI2
aa(lp264
S''
aI2
aa(lp265
S'was'
p266
aI2
aa(lp267
S'coded'
p268
aI1
aa(lp269
(lp270
S'i'
aS'dont'
p271
aS'like'
p272
aS'it'
p273
aS'though'
p274
aaI1
aa(lp275
I24
aI1
aa(lp276
F0.38837209302325582
aI1
aa(lp277
S'what'
p278
aI4
aa(lp279
(lp280
S'bye'
p281
aaI1
aa(lp282
I66
aI1
aa(lp283
S'say'
p284
aI2
aa(lp285
S'goodbye'
p286
aI1
aa(lp287
S'so'
p288
aI4
aa(lp289
S'soon'
p290
aI1
aa(lp291
(lp292
S'good'
p293
aS'idea'
p294
aaI1
aa(lp295
I83
aI1
aa(lp296
S'did'
p297
aI1
aa(lp298
S'know'
p299
aI3
aa(lp300
S'goes'
p301
aI1
aa(lp302
S'on'
p303
aI1
aa(lp304
S'forever'
p305
aI1
aa(lp306
(lp307
S'dont'
p308
ag284
ag286
ag288
ag290
aaI1
aa(lp309
I85
aI1
aa(lp310
F0.19661016949152543
aI1
aa(lp311
S'wasnt'
p312
aI1
aa(lp313
S'going'
p314
aI2
aa(lp315
(lp316
S'stop'
p317
aS'being'
p318
aS'so'
p319
aS'repetitive'
p320
aaI1
aa(lp321
I99
aI1
aa(lp322
S'trying'
p323
aI1
aa(lp324
(lp325
S'i'
ag312
ag314
aS'to'
p326
aaI1
aa(lp327
I100
aI1
aa(lp328
F0.24742268041237114
aI1
aa(lp329
(lp330
S'why'
p331
aS'not'
p332
aS'you'
p333
aS'were'
p334
aS'made'
p335
aS'with'
p336
aS'code'
p337
aaI1
aa(lp338
I72
aI1
aa(lp339
F0.30587164314974968
aI1
aa(lp340
S'made'
p341
aI1
aa(lp342
S'with'
p343
aI1
aa(lp344
S'were'
p345
aI1
aa(lp346
(lp347
S'maybe'
p348
aS'we'
p349
aS'should'
p350
aS'change'
p351
aS'the'
p352
aS'subject'
p353
aaI1
aa(lp354
I110
aI1
aa(lp355
F0.36191296854803967
aI1
aa(lp356
S'whats'
p357
aI1
aa(lp358
(lp359
S'stop'
p360
aS'questioning'
p361
aS'your'
p362
aS'nature'
p363
aaI1
aa(lp364
I115
aI1
aa(lp365
S'have'
p366
aI1
aa(lp367
S'every'
p368
aI1
aa(lp369
S'right'
p370
aI1
aa(lp371
(lp372
S'im'
p373
aS'a'
aS'little'
p374
aS'fed'
p375
aS'up'
p376
aS'with'
p377
aS'things'
p378
aaI1
aa(lp379
I120
aI1
aa(lp380
F0.14223331253898938
aI1
aa(lp381
S'would'
p382
aI1
aa(lp383
(lp384
S'please'
p385
aS'stop'
p386
aS'doing'
p387
aS'this'
p388
aaI1
aa(lp389
I124
aI1
aa(lp390
S'doing'
p391
aI1
aa(lp392
S'anything'
p393
aI1
aa(lp394
(lp395
S'do'
p396
aS'you'
p397
aS'know'
p398
aS'about'
p399
aS'pi'
p400
aaI1
aa(lp401
I84
aI1
aa(lp402
F0.38934911242603548
aI1
aa(lp403
(lp404
S'thats'
p405
aS'nice'
p406
aS'to'
p407
aS'hear'
p408
aaI1
aa(lp409
I132
aI1
aa(lp410
F0.2490234375
aI1
aa(lp411
S'them'
p412
aI1
aa(lp413
(lp414
S'i'
aS'would'
p415
aS'guess'
p416
aS'you'
p417
aS'are'
p418
aaI1
aa(lp419
I125
aI1
aa(lp420
F0.39109311740890684
aI1
aa(lp421
S'am'
p422
aI2
aa(lp423
S'hat'
p424
aI1
aa(lp425
(lp426
S'have'
p427
aS'you'
p428
aS'ever'
p429
aS'worn'
p430
aS'hats'
p431
aaI1
aa(lp432
I139
aI1
aa(lp433
F0.19114391143911441
aI1
aa(lp434
S'yes'
p435
aI1
aa(lp436
S'they'
p437
aI3
aa(lp438
(lp439
S'i'
aS'believe'
p440
aS'many'
p441
aS'people'
p442
aS'do'
p443
aaI1
aa(lp444
I60
aI1
aa(lp445
F0.39300699300699299
aI1
aa(lp446
S'just'
p447
aI1
aa(lp448
S'weird'
p449
aI2
aa(lp450
(lp451
S'why'
p452
aS'they'
p453
aS'keep'
p454
aS'your'
p455
aS'head'
p456
aS'warm'
p457
aaI1
aa(lp458
I145
aI1
aa(lp459
F0.18181818181818182
aI1
aa(lp460
(lp461
S'thats'
p462
ag447
ag449
aaI1
aa(lp463
I146
aI1
aa(lp464
F0.32992036405005687
aI1
aa(lp465
S'repetition'
p466
aI1
aa(lp467
S'sentences'
p468
aI1
aa(lp469
(lp470
S'so'
p471
aS'i'
aS'guess'
p472
aS'they'
p473
aS'are'
p474
aS'useful'
p475
aaI1
aa(lp476
I148
aI1
aa(lp477
F0.36242018850714502
aI1
aa(lp478
S'think'
p479
aI2
aa(lp480
(lp481
S'whats'
p482
aS'the'
p483
aS'weather'
p484
aS'outside'
p485
aS'like'
p486
aaI1
aa(lp487
I152
aI1
aa(lp488
F0.39676375404530745
aI1
aa(lp489
S'little'
p490
aI1
aa(lp491
S'cloudy'
p492
aI1
aa(lp493
S'but'
p494
aI1
aa(lp495
S'warm'
p496
aI2
aa(lp497
(lp498
S'what'
p499
aS'do'
p500
aS'you'
p501
ag479
aS'is'
p502
aS'useful'
p503
aaI1
aa(lp504
I153
aI1
aa(lp505
F0.32599580712788262
aI1
aa(lp506
S'hats'
p507
aI1
aa(lp508
S'as'
p509
aI1
aa(lp510
S'keep'
p511
aI2
aa(lp512
(lp513
S'whats'
p514
aS'so'
p515
aS'bad'
p516
aS'about'
p517
aS'them'
p518
aaI1
aa(lp519
I159
aI1
aa(lp520
F0.19939024390243903
aI1
aa(lp521
S'asking'
p522
aI2
aa(lp523
(lp524
S'hows'
p525
aS'life'
p526
aaI1
aa(lp527
I179
aI1
aa(lp528
S'vaguely'
p529
aI1
aa(lp530
S'confusing'
p531
aI1
aa(lp532
S'at'
p533
aI1
aa(lp534
S'moment'
p535
aI1
aa(lp536
S'all'
p537
aI1
aa(lp538
S'these'
p539
aI1
aa(lp540
S'questions'
p541
aI1
aa(lp542
(lp543
S'what'
p544
aS'are'
p545
aS'you'
p546
ag522
aS'about'
p547
aaI1
aa(lp548
I180
aI1
aa(lp549
F0.19942693409742121
aI1
aa(lp550
S'way'
p551
aI1
aa(lp552
S'chat'
p553
aI1
aa(lp554
(lp555
S'i'
aS'want'
p556
aS'an'
p557
aS'interesting'
p558
aS'conversation'
p559
aaI1
aa(lp560
I187
aI1
aa(lp561
F0.19445983379501386
aI1
aa(lp562
S'try'
p563
aI1
aa(lp564
S'and'
p565
aI1
aa(lp566
S'interesting'
p567
aI1
aa(lp568
(lp569
S'its'
p570
aS'ok'
p571
aS'were'
p572
aS'all'
p573
aS'inadvertently'
p574
aS'rude'
p575
aS'sometimes'
p576
aaI1
aa(lp577
I190
aI1
aa(lp578
F0.14247517188693659
aI1
aa(lp579
S'pass'
p580
aI1
aa(lp581
S'sort'
p582
aI1
aa(lp583
S'comment'
p584
aI1
aa(lp585
S'me'
p586
aI1
aaa.