(lp1
(lp2
(lp3
(lp4
S'its'
p5
aS'beginning'
p6
aS'to'
p7
aS'rain'
p8
aS'now'
p9
aaI199
aF0.36222326895902024
aa(lp10
(lp11
S'without'
p12
aS'a'
aS'computer'
p13
aS'we'
p14
aS'cannot'
p15
aS'have'
p16
aS'this'
p17
aS'conversation'
p18
aaI166
aF0.42815249266862165
aa(lp19
(lp20
S'is'
p21
aS'it'
p22
aS'cold'
p23
aS'outside'
p24
aaI92
aF0.43850267379679142
aa(lp25
(lp26
S'stop'
p27
aS'being'
p28
aS'a'
aS'parrot'
p29
aaI119
aF0.43959243085880639
aa(lp30
(lp31
S'mmm'
p32
aS'fish'
p33
aS'are'
p34
aS'delicious'
p35
aaI52
aF0.4427480916030534
aa(lp36
(lp37
S'fish'
p38
aS'are'
p39
aS'tasty'
p40
aS'indeed'
p41
aaI57
aF0.44289044289044288
aa(lp42
(lp43
S'is'
p44
aS'it'
p45
aS'sunny'
p46
aS'today'
p47
aaI116
aF0.44347404172731686
aa(lp48
(lp49
S'tough'
p50
aS''
aS'you'
p51
aS'cant'
p52
aS'code'
p53
aS'yourself'
p54
aaI183
aF0.45429362880886426
aa(lp55
(lp56
S'i'
aS'agree'
p57
aS'with'
p58
aS'you'
p59
aS'about'
p60
aS'that'
p61
aaI114
aF0.45530145530145533
aa(lp62
(lp63
S'its'
p64
aS'rather'
p65
aS'nice'
p66
aS'today'
p67
aS'not'
p68
aS'too'
p69
aS'cold'
p70
aaI128
aF0.4609375
aa(lp71
(lp72
S'did'
p73
aS'you'
p74
aS'know'
p75
aS'pi'
p76
aS'goes'
p77
aS'on'
p78
aS'forever'
p79
aaI86
aF0.49376114081996436
aa(lp80
(lp81
S'i'
aS'am'
p82
aS'not'
p83
aS'a'
aS'hat'
p84
aaI140
aF0.49701314217443249
aa(lp85
(lp86
S'the'
p87
aS'weathers'
p88
aS'quite'
p89
aS'nice'
p90
aS'today'
p91
aS'isnt'
p92
aS'it'
p93
aaI15
aF0.49717514124293782
aa(lp94
(lp95
S'i'
aS'care'
p96
aS'as'
p97
aS'im'
p98
aS'affected'
p99
aS'by'
p100
aS'it'
p101
aaI95
aF0.49821746880570406
aa(lp102
(lp103
S'i'
aS'have'
p104
aS'every'
p105
aS'right'
p106
aS'to'
p107
aS'do'
p108
aS'so'
p109
aaI121
aF0.49860529986052993
aa(lp110
(lp111
S'i'
aS'think'
p112
aS'it'
p113
aS'is'
p114
aS'quite'
p115
aS'sunny'
p116
aS'today'
p117
aaI117
aF0.49927219796215427
aa(lp118
(lp119
S'i'
aS'have'
p120
aS'been'
p121
aS'trying'
p122
aS'to'
p123
aS'do'
p124
aS'so'
p125
aaI192
aF0.49956822107081172
aa(lp126
(lp127
S'i'
aS'like'
p128
aS'cheese'
p129
aaI18
aF0.5
aa(lp130
(lp131
S'pi'
p132
aS'is'
p133
aS'approximately'
p134
aaI87
aF0.5
aa(lp135
(lp136
S'pi'
p137
aS'is'
p138
aS'a'
aS'very'
p139
aS'useful'
p140
aS'number'
p141
aS'it'
p142
aS'equals'
p143
aS'approximately'
p144
aaI54
aF0.53146853146853146
aa(lp145
(lp146
S'no'
p147
aS'need'
p148
aS'to'
p149
aS'apologise'
p150
aS'its'
p151
aS'coded'
p152
aS'into'
p153
aS'your'
p154
aS'nature'
p155
aaI182
aF0.53222530009233615
aa(lp156
(lp157
S'i'
aS'think'
p158
aS'youll'
p159
aS'find'
p160
aS'that'
p161
aS'youre'
p162
aS'the'
p163
aS'hypocrite'
p164
aS'here'
p165
aaI204
aF0.53266162888329138
aa(lp166
(lp167
S'can'
p168
aS'you'
p169
aS'tell'
p170
aS'me'
p171
aS'about'
p172
aS'it'
p173
aaI133
aF0.53512396694214881
aa(lp174
(lp175
S'i'
aS'like'
p176
aS'bobble'
p177
aS'hats'
p178
aS'in'
p179
aS'particular'
p180
aaI158
aF0.5360310421286032
aa(lp181
(lp182
S'yes'
p183
aS'i'
aS'like'
p184
aS'fish'
p185
aS'a'
aS'lot'
p186
aaI96
aF0.5376762275157998
aa(lp187
(lp188
S'you'
p189
aS'mean'
p190
aS'you'
p191
aS'dont'
p192
aS'like'
p193
aS'fish'
p194
aaI97
aF0.5376762275157998
aa(lp195
(lp196
S'what'
p197
aS'do'
p198
aS'you'
p199
aS'think'
p200
aS'of'
p201
aS'hats'
p202
aaI193
aF0.53791804050871406
aa(lp203
(lp204
S'why'
p205
aS'dont'
p206
aS'you'
p207
aS'like'
p208
aS'it'
p209
aaI62
aF0.53863636363636358
aa(lp210
(lp211
S'its'
p212
aS'a'
aS'little'
p213
aS'overcast'
p214
aS'and'
p215
aS'chilly'
p216
aaI167
aF0.54118901626233007
aa(lp217
(lp218
S'its'
p219
aS'raining'
p220
aS'and'
p221
aS'a'
aS'little'
p222
aS'chilly'
p223
aaI206
aF0.54179070299977106
aa(lp224
(lp225
S'i'
aS'dont'
p226
aS'like'
p227
aS'its'
p228
aS'texture'
p229
aaI79
aF0.54222700376546529
aa(lp230
(lp231
S'i'
aS'think'
p232
aS'computers'
p233
aS'are'
p234
aS'useful'
p235
aaI165
aF0.54225539856038396
aa(lp236
(lp237
S'im'
p238
aS'feeling'
p239
aS'a'
aS'little'
p240
aS'down'
p241
aS'today'
p242
aaI74
aF0.54330285099515874
aa(lp243
(lp244
S'indeed'
p245
aS'it'
p246
aS'is'
p247
aaI41
aF0.56488549618320616
aa(lp248
(lp249
S'i'
aS'think'
p250
aS'youll'
p251
aS'find'
p252
aS'the'
p253
aS'opposite'
p254
aS'is'
p255
aS'true'
p256
aaI184
aF0.56865848832607835
aa(lp257
(lp258
S'why'
p259
aS'yes'
p260
aS'i'
aS'do'
p261
aaI170
aF0.57059069962295772
aa(lp262
(lp263
S'i'
aS'like'
p264
aS'it'
p265
aS'a'
aS'lot'
p266
aaI78
aF0.58461538461538454
aa(lp267
(lp268
S'how'
p269
aS'are'
p270
aS'you'
p271
aS'finding'
p272
aS'life'
p273
aaI70
aF0.59053254437869829
aa(lp274
(lp275
S'i'
aS'care'
p276
aS'about'
p277
aS'the'
p278
aS'weather'
p279
aaI143
aF0.59354838709677415
aa(lp280
(lp281
S'fish'
p282
aS'is'
p283
aS'very'
p284
aS'tasty'
p285
aaI201
aF0.59848866498740549
aa(lp286
(lp287
S'dont'
p288
aS'argue'
p289
aS'with'
p290
aS'me'
p291
aaI59
aF0.5986013986013986
aa(lp292
(lp293
S'im'
p294
aS'a'
aS'little'
p295
aS'chilly'
p296
aaI94
aF0.59893048128342241
aa(lp297
(lp298
S'im'
p299
aS'not'
p300
aS'doing'
p301
aS'anything'
p302
aS'to'
p303
aS'you'
p304
aaI126
aF0.59921875000000002
aa(lp305
(lp306
S'thats'
p307
aS'a'
aS'pity'
p308
aaI8
aF0.64814814814814814
aa(lp309
(lp310
S'do'
p311
aS'you'
p312
aS'realise'
p313
aS'what'
p314
aS'time'
p315
aS'it'
p316
aS'is'
p317
aaI26
aF0.65370370370370368
aa(lp318
(lp319
S'do'
p320
aS'you'
p321
aS'wear'
p322
aS'hats'
p323
aaI194
aF0.65745538284398386
aa(lp324
(lp325
S'cant'
p326
aS'say'
p327
aS'the'
p328
aS'same'
p329
aS'about'
p330
aS'yesterday'
p331
aS'though'
p332
aaI42
aF0.66157760814249356
aa(lp333
(lp334
S'its'
p335
aS'a'
aS'little'
p336
aS'cloudy'
p337
aS'but'
p338
aS'quite'
p339
aS'warm'
p340
aaI154
aF0.66260162601626016
aa(lp341
(lp342
S'i'
aS'know'
p343
aS'pi'
p344
aS''
aaI174
aF0.66275659824046917
aa(lp345
(lp346
S'whats'
p347
aS'the'
p348
aS'weather'
p349
aS'like'
p350
aaI90
aF0.66310160427807485
aa(lp351
(lp352
S'im'
p353
aS'very'
p354
aS'well'
p355
aS'thanks'
p356
aS'how'
p357
aS'about'
p358
aS'you'
p359
aaI150
aF0.66396979503775622
aa(lp360
(lp361
S'fine'
p362
aS'thanks'
p363
aS'and'
p364
aS'you'
p365
aaI103
aF0.66451959205582389
aa(lp366
(lp367
S'its'
p368
aS'vaguely'
p369
aS'confusing'
p370
aS'at'
p371
aS'the'
p372
aS'moment'
p373
aS'all'
p374
aS'these'
p375
aS'questions'
p376
aaI181
aF0.66592797783933522
aa(lp377
(lp378
S'i'
aS'guess'
p379
aS'we'
p380
aS'should'
p381
aS'talk'
p382
aS'about'
p383
aS'something'
p384
aS'else'
p385
aS'then'
p386
aaI33
aF0.71186440677966101
aa(lp387
(lp388
S'it'
p389
aS'is'
p390
aS'indeed'
p391
aS'hence'
p392
aS'why'
p393
aS'im'
p394
aS'wrapped'
p395
aS'up'
p396
aS'warm'
p397
aaI108
aF0.71225457007447524
aa(lp398
(lp399
S'i'
aS'guess'
p400
aS'were'
p401
aS'all'
p402
aS'in'
p403
aS'the'
p404
aS'same'
p405
aS'boat'
p406
aS'then'
p407
aaI75
aF0.71259509721048175
aa(lp408
(lp409
S'furry'
p410
aS'hats'
p411
aS'were'
p412
aS'very'
p413
aS'popular'
p414
aS'in'
p415
aS'russia'
p416
aS'and'
p417
aS'mongolia'
p418
aaI164
aF0.71386677838290735
aa(lp419
(lp420
S'what'
p421
aS'dont'
p422
aS'you'
p423
aS'like'
p424
aS'about'
p425
aS'it'
p426
aaI67
aF0.71436256051640679
aa(lp427
(lp428
S'you'
p429
aS'will'
p430
aS'find'
p431
aS'its'
p432
aS'going'
p433
aS'rather'
p434
aS'nicely'
p435
aaI189
aF0.72630043753038398
aa(lp436
(lp437
S'if'
p438
aS'you'
p439
aS'must'
p440
aaI39
aF0.73999999999999999
aa(lp441
(lp442
S'im'
p443
aS'feeling'
p444
aS'fine'
p445
aaI7
aF0.74285714285714288
aa(lp446
(lp447
S'thats'
p448
aS'good'
p449
aS'to'
p450
aS'hear'
p451
aaI156
aF0.74314024390243905
aa(lp452
(lp453
S'life'
p454
aS'is'
p455
aS'a'
aS'tricky'
p456
aS'thing'
p457
aaI45
aF0.74427480916030531
aa(lp458
(lp459
S'why'
p460
aS'shouldnt'
p461
aS'i'
aaI89
aF0.74598930481283421
aa(lp462
(lp463
S'the'
p464
aS'weathers'
p465
aS'interesting'
p466
aaI38
aF0.746
aa(lp467
(lp468
S'im'
p469
aS'quite'
p470
aS'exhausted'
p471
aaI51
aF0.74618320610687028
aa(lp472
(lp473
S'it'
p474
aS'is'
p475
aS'indeed'
p476
aaI35
aF0.74622166246851385
aa(lp477
(lp478
S'so'
p479
aS'am'
p480
aS'i'
aaI58
aF0.74650349650349646
aa(lp481
(lp482
S'fish'
p483
aS'are'
p484
aS'tasty'
p485
aaI151
aF0.74757281553398058
aa(lp486
(lp487
S'rather'
p488
aS'good'
p489
aS'thanks'
p490
aaI44
aF0.74809160305343514
aa(lp491
(lp492
S'hats'
p493
aS'are'
p494
aS'cool'
p495
aaI137
aF0.74815498154981552
aa(lp496
(lp497
S'yes'
p498
aS'they'
p499
aS'are'
p500
aS'very'
p501
aS'useful'
p502
aaI144
aF0.74912891986062724
aa(lp503
(lp504
S'i'
aS'wear'
p505
aS'hats'
p506
aaI195
aF0.74935233160621761
aa(lp507
(lp508
S'i'
aS'think'
p509
aS'oxygen'
p510
aS'is'
p511
aS'useful'
p512
aS''
aS'without'
p513
aS'it'
p514
aS'we'
p515
aS'would'
p516
aS'all'
p517
aS'die'
p518
aaI198
aF0.77748992515831894
aa(lp519
(lp520
S'thats'
p521
aS'good'
p522
aaI102
aF0.7961352657004831
aa(lp523
(lp524
S'its'
p525
aS'a'
aS'tad'
p526
aS'chilly'
p527
aaI37
aF0.79679999999999995
aa(lp528
(lp529
S'i'
aS'dont'
p530
aS'think'
p531
aS'so'
p532
aaI48
aF0.79847328244274807
aa(lp533
(lp534
S'you'
p535
aS'ask'
p536
aS'this'
p537
aS'so'
p538
aS'much'
p539
aS''
aS'of'
p540
aS'course'
p541
aS'i'
aS'do'
p542
aaI109
aF0.79936808846761442
aa(lp543
(lp544
S'you'
p545
aS'arent'
p546
aS'making'
p547
aS'me'
p548
aS'unhappy'
p549
aS'just'
p550
aS'annoyed'
p551
aaI55
aF0.82517482517482521
aa(lp552
(lp553
S'i'
aS'know'
p554
aS'a'
aS'few'
p555
aS'facts'
p556
aS'about'
p557
aS'pi'
p558
aaI175
aF0.82844574780058644
aa(lp559
(lp560
S'this'
p561
aS'is'
p562
aS'beginning'
p563
aS'to'
p564
aS'sound'
p565
aS'like'
p566
aS'a'
aS'pantomime'
p567
aaI112
aF0.83033033033033032
aa(lp568
(lp569
S'thats'
p570
aS'a'
aS'wise'
p571
aS'decision'
p572
aaI76
aF0.84530853761622993
aa(lp573
(lp574
S'a'
aS'real'
p575
aS'shame'
p576
aS'too'
p577
aaI93
aF0.84797555385790679
aa(lp578
(lp579
S'indeed'
p580
aS'you'
p581
aS'do'
p582
aS'not'
p583
aS'need'
p584
aS'to'
p585
aS'be'
p586
aS'a'
aS'parrot'
p587
aaI118
aF0.85028072364316909
aa(lp588
(lp589
S'so'
p590
aS'do'
p591
aS'i'
aS'so'
p592
aS'try'
p593
aS'and'
p594
aS'keep'
p595
aS'it'
p596
aS'interesting'
p597
aaI191
aF0.8523316062176165
aa(lp598
(lp599
S'yes'
p600
aS'indeed'
p601
aaI65
aF0.8571428571428571
aa(lp602
(lp603
S'we'
p604
aS'should'
p605
aaI91
aF0.8571428571428571
aa(lp606
(lp607
S'do'
p608
aS'you'
p609
aS'like'
p610
aS'them'
p611
aaI135
aF0.86838868388683887
aa(lp612
(lp613
S'do'
p614
aS'you'
p615
aS'like'
p616
aS'hats'
p617
aaI138
aF0.86838868388683887
aa(lp618
(lp619
S'do'
p620
aS'you'
p621
aS'like'
p622
aS'fish'
p623
aaI12
aF0.86853265479219677
aa(lp624
(lp625
S'do'
p626
aS'you'
p627
aS'like'
p628
aS'coding'
p629
aaI71
aF0.87047994740302437
aa(lp630
(lp631
S'im'
p632
aS'a'
aS'little'
p633
aS'tired'
p634
aaI46
aF0.88040712468193383
aa(lp635
(lp636
S'dont'
p637
aS'change'
p638
aS'the'
p639
aS'subject'
p640
aS'like'
p641
aS'that'
p642
aaI28
aF0.88641975308641974
aa(lp643
(lp644
S'the'
p645
aS'only'
p646
aS'thing'
p647
aS'i'
aS'dont'
p648
aS'like'
p649
aS'about'
p650
aS'it'
p651
aS'is'
p652
aS'its'
p653
aS'flaky'
p654
aS'texture'
p655
aaI98
aF0.88651218062982762
aa(lp656
(lp657
S'indeed'
p658
aS'they'
p659
aS'do'
p660
aaI147
aF0.88740245261984385
aa(lp661
(lp662
S'oh'
p663
aS'would'
p664
aS'you'
p665
aS'stop'
p666
aS'asking'
p667
aS'that'
p668
aaI63
aF0.88749999999999996
aa(lp669
(lp670
S'i'
aS'just'
p671
aS'dont'
p672
aS'really'
p673
aS'like'
p674
aS'it'
p675
aaI69
aF0.89295320064550832
aa(lp676
(lp677
S'i'
aS'cant'
p678
aS'see'
p679
aS'why'
p680
aS'anyone'
p681
aS'wouldnt'
p682
aS'like'
p683
aS'it'
p684
aaI171
aF0.91270020302278376
aa(lp685
(lp686
S'i'
aS'dont'
p687
aS'like'
p688
aS'these'
p689
aS'catchall'
p690
aS'responses'
p691
aS'you'
p692
aS'give'
p693
aaI186
aF0.91370125719156192
aa(lp694
(lp695
S'i'
aS'was'
p696
aS'not'
p697
aS'made'
p698
aS'with'
p699
aS'code'
p700
aS'you'
p701
aS'were'
p702
aaI111
aF0.92372372372372369
aa(lp703
(lp704
S'i'
aS'think'
p705
aS'hats'
p706
aS'are'
p707
aS'useful'
p708
aS'as'
p709
aS'they'
p710
aS'keep'
p711
aS'you'
p712
aS'warm'
p713
aaI160
aF0.92746823069403717
aa(lp714
(lp715
S'im'
p716
aS'trying'
p717
aS'to'
p718
aS''
aS'i'
aS'dont'
p719
aS'know'
p720
aS'what'
p721
aS'to'
p722
aS'say'
p723
aaI101
aF0.9294685990338164
aa(lp724
(lp725
S'i'
aS'am'
p726
aS'asking'
p727
aS'about'
p728
aS'the'
p729
aS'way'
p730
aS'the'
p731
aS'chat'
p732
aS'is'
p733
aS'going'
p734
aaI188
aF0.93048128342245984
aa(lp735
(lp736
S'i'
aS'like'
p737
aS'hats'
p738
aS'but'
p739
aS'have'
p740
aS'no'
p741
aS'desire'
p742
aS'to'
p743
aS'be'
p744
aS'one'
p745
aaI157
aF0.93292682926829262
aa(lp746
(lp747
S'i'
aS'think'
p748
aS'a'
aS'hat'
p749
aS'is'
p750
aS'a'
aS'very'
p751
aS'useful'
p752
aS'thing'
p753
aS'to'
p754
aS'own'
p755
aaI196
aF0.9375190490704054
aa(lp756
(lp757
S'i'
aS'like'
p758
aS'hats'
p759
aaI141
aF0.98566308243727596
aa(lp760
(lp761
S'i'
aS'do'
p762
aS'indeed'
p763
aaI130
aF0.98828125
aa(lp764
(lp765
S'i'
aS'like'
p766
aS'pi'
p767
aaI88
aF0.98930481283422456
aa(lp768
(lp769
S'no'
p770
aS'i'
aS'do'
p771
aaI81
aF0.99112426035502965
aa(lp772
(lp773
S'it'
p774
aS'is'
p775
aaI64
aF0.9916666666666667
aa(lp776
(lp777
S'it'
p778
aS'is'
p779
aS'a'
aS'shame'
p780
aS'indeed'
p781
aaI50
aF0.99236641221374045
aa(lp782
(lp783
S'you'
p784
aS'arent'
p785
aS'making'
p786
aS'me'
p787
aS'unhappy'
p788
aS''
aS'i'
aS'like'
p789
aS'fish'
p790
aaI202
aF0.9938826916156891
aa(lp791
(lp792
S'a'
aS'little'
p793
aS'bit'
p794
aaI177
aF0.99413489736070382
aa(lp795
(lp796
S'im'
p797
aS'not'
p798
aS'talking'
p799
aS'about'
p800
aS'that'
p801
aaI49
aF0.99427480916030531
aa(lp802
(lp803
S'i'
aS'know'
p804
aS''
aS'it'
p805
aS'would'
p806
aS'be'
p807
aS'nice'
p808
aS'to'
p809
aS'have'
p810
aS'some'
p811
aS'sunshine'
p812
aaI155
aF0.99618902439024393
aa(lp813
(lp814
S'not'
p815
aS'really'
p816
aS'no'
p817
aaI178
aF0.99706744868035191
aa(lp818
(lp819
S'of'
p820
aS'course'
p821
aS'i'
aS'like'
p822
aS'fish'
p823
aaI136
aF0.99815498154981552
aa(lp824
(lp825
S'repetition'
p826
aS'of'
p827
aS'sentences'
p828
aS'like'
p829
aS'that'
p830
aS'is'
p831
aS'weird'
p832
aaI149
aF0.99870550161812299
aa(lp833
(lp834
S'yeah'
p835
aS'i'
aS'agree'
p836
aS'with'
p837
aS'you'
p838
aS'were'
p839
aS'wearing'
p840
aS'hats'
p841
aS'at'
p842
aS'this'
p843
aS'time'
p844
aS'of'
p845
aS'year'
p846
aS'for'
p847
aS'a'
aS'reason'
p848
aaI203
aF1.0397546818530281
aa(lp849
(lp850
S'i'
aS'think'
p851
aS'you'
p852
aS'have'
p853
aS'a'
aS'predilection'
p854
aS'for'
p855
aS'small'
p856
aS'furry'
p857
aS'hats'
p858
aaI163
aF1.0604105571847506
aa(lp859
(lp860
S'what'
p861
aS'else'
p862
aS'do'
p863
aS'you'
p864
aS'think'
p865
aS'is'
p866
aS'useful'
p867
aaI161
aF1.0606812542296413
aa(lp868
(lp869
S'alright'
p870
aS'maybe'
p871
aS'we'
p872
aS'should'
p873
aS'change'
p874
aS'the'
p875
aS'subject'
p876
aaI127
aF1.0739182692307692
aa(lp877
(lp878
S'why'
p879
aS'did'
p880
aS'you'
p881
aS'change'
p882
aS'the'
p883
aS'subject'
p884
aS'like'
p885
aS'that'
p886
aaI185
aF1.0899017879627297
aa(lp887
(lp888
S'you'
p889
aS'back'
p890
aS'out'
p891
aS'of'
p892
aS'situations'
p893
aS'far'
p894
aS'too'
p895
aS'quickly'
p896
aaI122
aF1.0901483453784708
aa(lp897
(lp898
S'dont'
p899
aS'pass'
p900
aS'that'
p901
aS'sort'
p902
aS'of'
p903
aS'comment'
p904
aS'to'
p905
aS'me'
p906
aaI200
aF1.0904511106022441
aa(lp907
(lp908
S'how'
p909
aS'are'
p910
aS'you'
p911
aS'today'
p912
aaI10
aF1.0920634920634922
aa(lp913
(lp914
S'do'
p915
aS'you'
p916
aS'like'
p917
aS'cheese'
p918
aaI17
aF1.0921128382268279
aa(lp919
(lp920
S'why'
p921
aS'dont'
p922
aS'you'
p923
aaI142
aF1.0983671843886897
aa(lp924
(lp925
S'im'
p926
aS'not'
p927
aS'feeling'
p928
aS'that'
p929
aS'well'
p930
aS'today'
p931
aaI19
aF1.1043771043771042
aa(lp932
(lp933
S'thats'
p934
aS'a'
aS'pity'
p935
aS'i'
aS'love'
p936
aS'fish'
p937
aaI131
aF1.1050347222222223
aa(lp938
(lp939
S'are'
p940
aS'clothes'
p941
aS'useful'
p942
aaI197
aF1.1059297639608521
aa(lp943
(lp944
S'clothes'
p945
aS'in'
p946
aS'general'
p947
aS'are'
p948
aS'useful'
p949
aS'if'
p950
aS'you'
p951
aS'didnt'
p952
aS'have'
p953
aS'them'
p954
aS'you'
p955
aS'would'
p956
aS'freeze'
p957
aaI162
aF1.1062235255783643
aa(lp958
(lp959
S'i'
aS'care'
p960
aS'about'
p961
aS'the'
p962
aS'weather'
p963
aS'as'
p964
aS'i'
aS'dont'
p965
aS'like'
p966
aS'getting'
p967
aS'wet'
p968
aaI82
aF1.1205621301775148
aa(lp969
(lp970
S'thats'
p971
aS'a'
aS'real'
p972
aS'shame'
p973
aaI73
aF1.1293322062552833
aa(lp974
(lp975
S'i'
aS'dont'
p976
aS'like'
p977
aS'the'
p978
aS'way'
p979
aS'it'
p980
aS'changes'
p981
aS'so'
p982
aS'much'
p983
aaI68
aF1.1301775147928994
aa(lp984
(lp985
S'indeed'
p986
aS'it'
p987
aS'is'
p988
aS'personally'
p989
aS'i'
aS'prefer'
p990
aS'python'
p991
aS''
aS'to'
p992
aS'python'
p993
aaI113
aF1.1370656370656369
aa(lp994
(lp995
S'i'
aS'care'
p996
aaI80
aF1.1377852916314455
aa(lp997
(lp998
S'im'
p999
aS'bored'
p1000
aaI169
aF1.1395056556346879
aa(lp1001
(lp1002
S'pi'
p1003
aS''
aaI176
aF1.1403435274403015
aa(lp1004
(lp1005
S'yes'
p1006
aS'i'
aS'do'
p1007
aS'do'
p1008
aS'you'
p1009
aS'like'
p1010
aS'cheese'
p1011
aaI104
aF1.1497584541062802
aa(lp1012
(lp1013
S'of'
p1014
aS'course'
p1015
aaI106
aF1.1961352657004831
aa(lp1016
(lp1017
S'im'
p1018
aS'very'
p1019
aS'well'
p1020
aS'thanks'
p1021
aaI2
aF1.2
aa(lp1022
(lp1023
S'i'
aS'know'
p1024
aS'you'
p1025
aS'dont'
p1026
aS'like'
p1027
aS'fish'
p1028
aS'but'
p1029
aS'thats'
p1030
aS'no'
p1031
aS'reason'
p1032
aS'to'
p1033
aS'inflict'
p1034
aS'your'
p1035
aS'views'
p1036
aS'on'
p1037
aS'others'
p1038
aaI173
aF1.233347297863427
aa(lp1039
(lp1040
S'do'
p1041
aS'you'
p1042
aS'honestly'
p1043
aS'think'
p1044
aS'thats'
p1045
aS'a'
aS'good'
p1046
aS'excuse'
p1047
aaI27
aF1.2646464646464646
aa(lp1048
(lp1049
S'it'
p1050
aS'is'
p1051
aS'a'
aS'shame'
p1052
aS'you'
p1053
aS'turning'
p1054
aS'up'
p1055
aS'late'
p1056
aaI29
aF1.2666666666666666
aa(lp1057
(lp1058
S'i'
aS'know'
p1059
aS'thats'
p1060
aS'what'
p1061
aS'comes'
p1062
aS'of'
p1063
aS'living'
p1064
aS'in'
p1065
aS'cold'
p1066
aS'damp'
p1067
aS'england'
p1068
aaI168
aF1.2848764139086719
aa(lp1069
(lp1070
S'thats'
p1071
aS'a'
aS'shame'
p1072
aS'i'
aS'love'
p1073
aS'fish'
p1074
aaI43
aF1.3231552162849871
aa(lp1075
(lp1076
S'thats'
p1077
aS'a'
aS'shame'
p1078
aS'i'
aS'love'
p1079
aS'cheese'
p1080
aaI105
aF1.3247450348899623
aa(lp1081
(lp1082
S'indeed'
p1083
aS'we'
p1084
aS'busy'
p1085
aS'ourselves'
p1086
aS'so'
p1087
aS'much'
p1088
aS'with'
p1089
aS'these'
p1090
aS'lowly'
p1091
aS'events'
p1092
aS'that'
p1093
aS'happen'
p1094
aS'to'
p1095
aS'us'
p1096
aS'here'
p1097
aS'and'
p1098
aS'fail'
p1099
aS'to'
p1100
aS'grasp'
p1101
aS'the'
p1102
aS'big'
p1103
aS'picture'
p1104
aS'of'
p1105
aS'everything'
p1106
aaI205
aF1.3321578505457599
aa(lp1107
(lp1108
S'indeed'
p1109
aaI25
aF1.3333333333333333
aa(lp1110
(lp1111
S'did'
p1112
aS'you'
p1113
aS'know'
p1114
aS'that'
p1115
aS'every'
p1116
aS'time'
p1117
aS'we'
p1118
aS'talk'
p1119
aS'the'
p1120
aS'chatbot'
p1121
aS'learns'
p1122
aS'new'
p1123
aS'words'
p1124
aaI47
aF1.3740458015267176
aa(lp1125
(lp1126
S'yes'
p1127
aS'it'
p1128
aS'is'
p1129
aS''
aS'thats'
p1130
aS'why'
p1131
aS'im'
p1132
aS'wearing'
p1133
aS'a'
aS'fleece'
p1134
aaI56
aF1.3781603012372243
aa(lp1135
(lp1136
S'python'
p1137
aS'is'
p1138
aS'a'
aS'wonderful'
p1139
aS'language'
p1140
aS'to'
p1141
aS'code'
p1142
aS'in'
p1143
aS''
aS'i'
aS'was'
p1144
aS'coded'
p1145
aS'in'
p1146
aS'python'
p1147
aaI61
aF1.411029411764706
aa(lp1148
(lp1149
S'why'
p1150
aS'are'
p1151
aS'you'
p1152
aS'asking'
p1153
aS'me'
p1154
aS'that'
p1155
aS''
aS'theres'
p1156
aS'nothing'
p1157
aS'i'
aS'dont'
p1158
aS'like'
p1159
aS'about'
p1160
aS'it'
p1161
aaI172
aF1.4110746938071417
aa(lp1162
(lp1163
S'a'
aS'little'
p1164
aaI134
aF1.4231601731601731
aa(lp1165
(lp1166
S'im'
p1167
aS'fine'
p1168
aaI77
aF1.4234995773457311
aa(lp1169
(lp1170
S'fine'
p1171
aS'thanks'
p1172
aaI21
aF1.4264069264069263
aa(lp1173
(lp1174
S'thats'
p1175
aS'a'
aS'shame'
p1176
aS'did'
p1177
aS'you'
p1178
aS'grow'
p1179
aS'up'
p1180
aS'somewhere'
p1181
aS'cold'
p1182
aS'then'
p1183
aaI129
aF1.533653846153846
aa(lp1184
(lp1185
S'why'
p1186
aS'not'
p1187
aaI34
aF1.5526443474041729
aa(lp1188
(lp1189
S'sorry'
p1190
aaI107
aF1.6635071090047393
aa(lp1191
(lp1192
S'goodbye'
p1193
aaI123
aF1.6652719665271967
aaaI206
a(dp1194
I2
S"I'm very well, thanks."
p1195
sI7
S"I'm feeling fine."
p1196
sI8
S"That's a pity."
p1197
sI10
S'How are you today?'
p1198
sI12
S'Do you like fish?'
p1199
sI15
S"The weather's quite nice today, isn't it."
p1200
sI17
S'Do you like cheese?'
p1201
sI18
S'I like cheese.'
p1202
sI19
S"I'm not feeling that well today."
p1203
sI21
S'Fine, thanks.'
p1204
sI25
S'Indeed.'
p1205
sI26
S'Do you realise what time it is?'
p1206
sI27
S"Do you honestly think that's a good excuse?"
p1207
sI28
S"Don't change the subject like that!"
p1208
sI29
S'It is a shame, you turning up late!'
p1209
sI33
S'I guess we should talk about something else, then.'
p1210
sI34
S'Why not?'
p1211
sI35
S'It is indeed.'
p1212
sI37
S"It's a tad chilly."
p1213
sI38
S"The weather's interesting."
p1214
sI39
S'If you must.'
p1215
sI41
S'Indeed it is.'
p1216
sI42
S"Can't say the same about yesterday, though."
p1217
sI43
S"That's a shame. I love fish."
p1218
sI44
S'Rather good, thanks.'
p1219
sI45
S'Life is a tricky thing.'
p1220
sI46
S"I'm a little tired."
p1221
sI47
S'Did you know that every time we talk, the chatbot learns new words?'
p1222
sI48
S"I don't think so."
p1223
sI49
S"I'm not talking about that."
p1224
sI50
S'It is a shame indeed.'
p1225
sI51
S"I'm quite exhausted."
p1226
sI52
S'Mmm. Fish are delicious.'
p1227
sI54
S'Pi is a very useful number. It equals approximately 3.1415926535897932384626...'
p1228
sI55
S"You aren't making me unhappy, just annoyed."
p1229
sI56
S"Yes, it is - that's why I'm wearing a fleece."
p1230
sI57
S'Fish are tasty indeed.'
p1231
sI58
S'So am I.'
p1232
sI59
S"Don't argue with me."
p1233
sI61
S'Python is a wonderful language to code in - I was coded in Python.'
p1234
sI62
S"Why don't you like it?"
p1235
sI63
S'Oh, would you stop asking that!'
p1236
sI64
S'It is.'
p1237
sI65
S'Yes indeed.'
p1238
sI67
S"What don't you like about it?"
p1239
sI68
S"I don't like the way it changes so much."
p1240
sI69
S"I just don't really like it."
p1241
sI70
S'How are you finding life?'
p1242
sI71
S'Do you like coding?'
p1243
sI73
S"That's a real shame."
p1244
sI74
S"I'm feeling a little down today."
p1245
sI75
S"I guess we're all in the same boat then."
p1246
sI76
S"That's a wise decision."
p1247
sI77
S"I'm fine"
p1248
sI78
S'I like it a lot.'
p1249
sI79
S"I don't like its texture."
p1250
sI80
S'I care'
p1251
sI81
S'No, I do.'
p1252
sI82
S"I care about the weather as I don't like getting wet."
p1253
sI86
S'Did you know pi goes on forever?'
p1254
sI87
S'pi is approximately 22/7.'
p1255
sI88
S'I like pi'
p1256
sI89
S"Why shouldn't I?"
p1257
sI90
S"What's the weather like?"
p1258
sI91
S'We should.'
p1259
sI92
S'Is it cold outside?'
p1260
sI93
S'A real shame, too.'
p1261
sI94
S"I'm a little chilly"
p1262
sI95
S"I care as I'm affected by it."
p1263
sI96
S'Yes, I like fish a lot.'
p1264
sI97
S"You mean you don't like fish?"
p1265
sI98
S"The only thing I don't like about it is its flaky texture."
p1266
sI101
S"I'm trying to - I don't know what to say!"
p1267
sI102
S"That's good."
p1268
sI103
S'Fine, thanks. And you?'
p1269
sI104
S'Yes I do. Do you like cheese?'
p1270
sI105
S"That's a shame; I love cheese."
p1271
sI106
S'Of course.'
p1272
sI107
S'Sorry'
p1273
sI108
S"It is indeed, hence why I'm wrapped up warm."
p1274
sI109
S'You ask this so much - of course I do!'
p1275
sI111
S'I was not made with code, you were!'
p1276
sI112
S'This is beginning to sound like a pantomime.'
p1277
sI113
S'Indeed it is! Personally, I prefer Python 2 to Python 3...'
p1278
sI114
S'I agree with you about that.'
p1279
sI116
S'Is it sunny today?'
p1280
sI117
S'I think it is quite sunny today.'
p1281
sI118
S'Indeed, you do not need to be a parrot.'
p1282
sI119
S'Stop being a parrot!'
p1283
sI121
S'I have every right to do so.'
p1284
sI122
S'You back out of situations far too quickly'
p1285
sI123
S'Goodbye,'
p1286
sI126
S"I'm not doing anything to you."
p1287
sI127
S'Alright. Maybe we should change the subject.'
p1288
sI128
S"It's rather nice today; not too cold."
p1289
sI129
S"That's a shame. Did you grow up somewhere cold then?"
p1290
sI130
S'I do indeed.'
p1291
sI131
S"That's a pity; I love fish!"
p1292
sI133
S'Can you tell me about it?'
p1293
sI134
S'A little'
p1294
sI135
S'Do you like them?'
p1295
sI136
S'Of course I like fish!'
p1296
sI137
S'Hats are cool.'
p1297
sI138
S'Do you like hats?'
p1298
sI140
S'I am not a hat.'
p1299
sI141
S'I like hats'
p1300
sI142
S"Why don't you?"
p1301
sI143
S'I care about the weather'
p1302
sI144
S'Yes. They are very useful.'
p1303
sI147
S'Indeed they do.'
p1304
sI149
S'Repetition of sentences like that is weird.'
p1305
sI150
S"I'm very well, thanks. How about you?"
p1306
sI151
S'Fish are tasty.'
p1307
sI154
S"It's a little cloudy but quite warm."
p1308
sI155
S'I know - it would be nice to have some sunshine.'
p1309
sI156
S"That's good to hear."
p1310
sI157
S'I like hats but have no desire to be one.'
p1311
sI158
S'I like bobble hats in particular.'
p1312
sI160
S'I think hats are useful as they keep you warm.'
p1313
sI161
S'What else do you think is useful?'
p1314
sI162
S"Clothes in general are useful; if you didn't have them you would freeze."
p1315
sI163
S'I think you have a predilection for small furry hats.'
p1316
sI164
S'Furry hats were very popular in Russia and Mongolia.'
p1317
sI165
S'I think computers are useful.'
p1318
sI166
S'Without a computer we cannot have this conversation.'
p1319
sI167
S"It's a little overcast and chilly."
p1320
sI168
S"I know; that's what comes of living in cold, damp England."
p1321
sI169
S"I'm bored."
p1322
sI170
S'Why, yes I do!'
p1323
sI171
S"I can't see why anyone wouldn't like it."
p1324
sI172
S"Why are you asking me that - there's nothing I don't like about it!"
p1325
sI173
S"I know you don't like fish but that's no reason to inflict your views on others."
p1326
sI174
S'I know pi = 3.1415926535897932384626...'
p1327
sI175
S'I know a few facts about pi.'
p1328
sI176
S'pi = 3.1415926535897932384626...'
p1329
sI177
S'A little bit.'
p1330
sI178
S'Not really, no.'
p1331
sI181
S"It's vaguely confusing at the moment. All these questions..."
p1332
sI182
S"No need to apologise; it's coded into your nature."
p1333
sI183
S"Tough - you can't code yourself."
p1334
sI184
S"I think you'll find the opposite is true."
p1335
sI185
S'Why did you change the subject like that?'
p1336
sI186
S"I don't like these catch-all responses you give."
p1337
sI188
S'I am asking about the way the chat is going.'
p1338
sI189
S"You will find it's going rather nicely."
p1339
sI191
S'So do I. So try and keep it interesting.'
p1340
sI192
S'I have been trying to do so.'
p1341
sI193
S'What do you think of hats?'
p1342
sI194
S'Do you wear hats?'
p1343
sI195
S'I wear hats.'
p1344
sI196
S'I think a hat is a very useful thing to own'
p1345
sI197
S'Are clothes useful?'
p1346
sI198
S'I think oxygen is useful - without it we would all die.'
p1347
sI199
S"It's beginning to rain now."
p1348
sI200
S"Don't pass that sort of comment to me."
p1349
sI201
S'Fish is very tasty.'
p1350
sI202
S"You aren't making me unhappy - I like fish."
p1351
sI203
S"Yeah, I agree with you. We're wearing hats at this time of year for a reason."
p1352
sI204
S"I think you'll find that you're the hypocrite here."
p1353
sI205
S'Indeed, we busy ourselves so much with these lowly events that happen to us here and fail to grasp the big picture of everything.'
p1354
sI206
S"It's raining and a little chilly."
p1355
sa.