(lp1
(lp2
(lp3
(lp4
S'hello'
p5
aa(lp6
S'hi'
p7
aaI0
aa(lp8
(lp9
g7
aa(lp10
g5
aaI1
aa(lp11
(lp12
S'how'
p13
aS'are'
p14
aS'you'
p15
aa(lp16
S'im'
p17
aS'very'
p18
aS'well'
p19
aS'thanks'
p20
aaI2
aa(lp21
(lp22
S'how'
p23
aS'are'
p24
aS'you'
p25
aS'feeling'
p26
aS'today'
p27
aa(lp28
S'not'
p29
aS'that'
p30
aS'great'
p31
aaI3
aa(lp32
g28
a(lp33
S'thats'
p34
aS'a'
aS'shame'
p35
aaI4
aa(lp36
g33
a(lp37
S'how'
p38
aS'are'
p39
aS'you'
p40
aaI5
aa(lp41
(lp42
S'how'
p43
aS'are'
p44
aS'you'
p45
aS'feeling'
p46
aa(lp47
S'im'
p48
aS'feeling'
p49
aS'fine'
p50
aaI6
aa(lp51
(lp52
S'same'
p53
aS'for'
p54
aS'me'
p55
aa(lp56
S'do'
p57
aS'you'
p58
aS'like'
p59
aS'fish'
p60
aaI7
aa(lp61
(lp62
S'im'
p63
aS'fine'
p64
aS'thanks'
p65
aS'for'
p66
aS'asking'
p67
aa(lp68
S'do'
p69
aS'you'
p70
aS'like'
p71
aS'fish'
p72
aaI8
aa(lp73
(lp74
S'same'
p75
aS'here'
p76
aa(lp77
S'the'
p78
aS'weathers'
p79
aS'quite'
p80
aS'nice'
p81
aS'today'
p82
aS'isnt'
p83
aS'it'
p84
aaI9
aa(lp85
(lp86
S'me'
p87
aS'neither'
p88
aa(lp89
S'do'
p90
aS'you'
p91
aS'like'
p92
aS'cheese'
p93
aaI10
aa(lp94
(lp95
S'im'
p96
aS'feeling'
p97
aS'a'
aS'little'
p98
aS'down'
p99
aa(lp100
S'thats'
p101
aS'a'
aS'pity'
p102
aaI11
aa(lp103
(lp104
S'i'
aS'like'
p105
aS'cheese'
p106
aS'do'
p107
aS'you'
p108
aa(lp109
S'of'
p110
aS'course'
p111
aS'not'
p112
aaI12
aa(lp113
(lp114
S'yes'
p115
aS'its'
p116
aS'wonderful'
p117
aa(lp118
S'i'
aS'dont'
p119
aS'like'
p120
aS'it'
p121
aS'though'
p122
aaI13
aa(lp123
g109
a(lp124
S'indeed'
p125
aaI14
aa(lp126
(lp127
S'its'
p128
aS'rather'
p129
aS'chilly'
p130
aS'dont'
p131
aS'you'
p132
aS'think'
p133
aa(lp134
S'who'
p135
aS'cares'
p136
aS'about'
p137
aS'the'
p138
aS'weather'
p139
aaI15
aa(lp140
(lp141
S'im'
p142
aS'not'
p143
aS'very'
p144
aS'happy'
p145
aS'at'
p146
aS'all'
p147
aa(lp148
S'sorry'
p149
aS'for'
p150
aS'making'
p151
aS'you'
p152
aS'unhappy'
p153
aaI16
aa(lp154
g134
a(lp155
S'i'
aS'guess'
p156
aS'we'
p157
aS'should'
p158
aS'talk'
p159
aS'about'
p160
aS'something'
p161
aS'else'
p162
aS'then'
p163
aaI17
aa(lp164
(lp165
S'sorry'
p166
aS'for'
p167
aS'making'
p168
aS'you'
p169
aS'unhappy'
p170
aa(lp171
S'its'
p172
aS'a'
aS'tad'
p173
aS'chilly'
p174
aaI18
aa(lp175
(lp176
S'nice'
p177
aS'day'
p178
aS'isnt'
p179
aS'it'
p180
aa(lp181
S'indeed'
p182
aS'it'
p183
aS'is'
p184
aaI19
aa(lp185
(lp186
S'same'
p187
aS'with'
p188
aS'me'
p189
aa(lp190
S'pi'
p191
aS'is'
p192
aS'a'
aS'very'
p193
aS'useful'
p194
aS'number'
p195
aS'it'
p196
aS'equals'
p197
aS'approximately'
p198
aaI20
aa(lp199
(lp200
S'glad'
p201
aS'to'
p202
aS'hear'
p203
aS'it'
p204
aa(lp205
S'python'
p206
aS'is'
p207
aS'a'
aS'wonderful'
p208
aS'language'
p209
aS'to'
p210
aS'code'
p211
aS'in'
p212
aS''
aS'i'
aS'was'
p213
aS'coded'
p214
aS'in'
p215
aS'python'
p216
aaI21
aa(lp217
(lp218
S'i'
aS'dont'
p219
aS'like'
p220
aS'it'
p221
aS'though'
p222
aa(lp223
S'what'
p224
aS'dont'
p225
aS'you'
p226
aS'like'
p227
aS'about'
p228
aS'it'
p229
aaI22
aa(lp230
(lp231
S'bye'
p232
aa(lp233
S'dont'
p234
aS'say'
p235
aS'goodbye'
p236
aS'so'
p237
aS'soon'
p238
aaI23
aa(lp239
(lp240
S'good'
p241
aS'idea'
p242
aa(lp243
S'did'
p244
aS'you'
p245
aS'know'
p246
aS'pi'
p247
aS'goes'
p248
aS'on'
p249
aS'forever'
p250
aaI24
aa(lp251
g233
a(lp252
S'i'
aS'wasnt'
p253
aS'going'
p254
aS'to'
p255
aaI25
aa(lp256
(lp257
S'stop'
p258
aS'being'
p259
aS'so'
p260
aS'repetitive'
p261
aa(lp262
S'im'
p263
aS'trying'
p264
aS'to'
p265
aS''
aS'i'
aS'dont'
p266
aS'know'
p267
aS'what'
p268
aS'to'
p269
aS'say'
p270
aaI26
aa(lp271
g252
a(lp272
S'sorry'
p273
aaI27
aa(lp274
(lp275
S'why'
p276
aS'not'
p277
aS'you'
p278
aS'were'
p279
aS'made'
p280
aS'with'
p281
aS'code'
p282
aa(lp283
S'i'
aS'was'
p284
aS'not'
p285
aS'made'
p286
aS'with'
p287
aS'code'
p288
aS'you'
p289
aS'were'
p290
aaI28
aa(lp291
(lp292
S'maybe'
p293
aS'we'
p294
aS'should'
p295
aS'change'
p296
aS'the'
p297
aS'subject'
p298
aa(lp299
S'whats'
p300
aS'the'
p301
aS'weather'
p302
aS'like'
p303
aaI29
aa(lp304
(lp305
S'stop'
p306
aS'questioning'
p307
aS'your'
p308
aS'nature'
p309
aa(lp310
S'i'
aS'have'
p311
aS'every'
p312
aS'right'
p313
aS'to'
p314
aS'do'
p315
aS'so'
p316
aaI30
aa(lp317
(lp318
S'im'
p319
aS'a'
aS'little'
p320
aS'fed'
p321
aS'up'
p322
aS'with'
p323
aS'things'
p324
aa(lp325
S'i'
aS'would'
p326
aS'guess'
p327
aS'you'
p328
aS'are'
p329
aaI31
aa(lp330
(lp331
S'please'
p332
aS'stop'
p333
aS'doing'
p334
aS'this'
p335
aa(lp336
S'im'
p337
aS'not'
p338
aS'doing'
p339
aS'anything'
p340
aS'to'
p341
aS'you'
p342
aaI32
aa(lp343
(lp344
S'do'
p345
aS'you'
p346
aS'know'
p347
aS'about'
p348
aS'pi'
p349
aa(lp350
S'do'
p351
aS'you'
p352
aS'know'
p353
aS'about'
p354
aS'pi'
p355
aaI33
aa(lp356
(lp357
S'thats'
p358
aS'nice'
p359
aS'to'
p360
aS'hear'
p361
aa(lp362
S'do'
p363
aS'you'
p364
aS'like'
p365
aS'them'
p366
aaI34
aa(lp367
(lp368
S'i'
aS'would'
p369
aS'guess'
p370
aS'you'
p371
aS'are'
p372
aa(lp373
S'i'
aS'am'
p374
aS'not'
p375
aS'a'
aS'hat'
p376
aaI35
aa(lp377
(lp378
S'have'
p379
aS'you'
p380
aS'ever'
p381
aS'worn'
p382
aS'hats'
p383
aa(lp384
S'yes'
p385
aS'they'
p386
aS'are'
p387
aS'very'
p388
aS'useful'
p389
aaI36
aa(lp390
(lp391
S'i'
aS'believe'
p392
aS'many'
p393
aS'people'
p394
aS'do'
p395
aa(lp396
S'thats'
p397
aS'just'
p398
aS'weird'
p399
aaI37
aa(lp400
(lp401
S'why'
p402
aS'they'
p403
aS'keep'
p404
aS'your'
p405
aS'head'
p406
aS'warm'
p407
aa(lp408
S'indeed'
p409
aS'they'
p410
aS'do'
p411
aaI38
aa(lp412
g396
a(lp413
S'repetition'
p414
aS'of'
p415
aS'sentences'
p416
aS'like'
p417
aS'that'
p418
aS'is'
p419
aS'weird'
p420
aaI39
aa(lp421
(lp422
S'so'
p423
aS'i'
aS'guess'
p424
aS'they'
p425
aS'are'
p426
aS'useful'
p427
aa(lp428
S'what'
p429
aS'do'
p430
aS'you'
p431
aS'think'
p432
aS'is'
p433
aS'useful'
p434
aaI40
aa(lp435
(lp436
S'whats'
p437
aS'the'
p438
aS'weather'
p439
aS'outside'
p440
aS'like'
p441
aa(lp442
S'its'
p443
aS'a'
aS'little'
p444
aS'cloudy'
p445
aS'but'
p446
aS'quite'
p447
aS'warm'
p448
aaI41
aa(lp449
g428
a(lp450
S'i'
aS'think'
p451
aS'hats'
p452
aS'are'
p453
aS'useful'
p454
aS'as'
p455
aS'they'
p456
aS'keep'
p457
aS'you'
p458
aS'warm'
p459
aaI42
aa(lp460
(lp461
S'whats'
p462
aS'so'
p463
aS'bad'
p464
aS'about'
p465
aS'them'
p466
aa(lp467
S'what'
p468
aS'are'
p469
aS'you'
p470
aS'asking'
p471
aS'about'
p472
aaI43
aa(lp473
(lp474
S'hows'
p475
aS'life'
p476
aa(lp477
S'its'
p478
aS'vaguely'
p479
aS'confusing'
p480
aS'at'
p481
aS'the'
p482
aS'moment'
p483
aS'all'
p484
aS'these'
p485
aS'questions'
p486
aaI44
aa(lp487
g467
a(lp488
S'i'
aS'am'
p489
aS'asking'
p490
aS'about'
p491
aS'the'
p492
aS'way'
p493
aS'the'
p494
aS'chat'
p495
aS'is'
p496
aS'going'
p497
aaI45
aa(lp498
(lp499
S'i'
aS'want'
p500
aS'an'
p501
aS'interesting'
p502
aS'conversation'
p503
aa(lp504
S'so'
p505
aS'do'
p506
aS'i'
aS'so'
p507
aS'try'
p508
aS'and'
p509
aS'keep'
p510
aS'it'
p511
aS'interesting'
p512
aaI46
aa(lp513
(lp514
S'its'
p515
aS'ok'
p516
aS'were'
p517
aS'all'
p518
aS'inadvertently'
p519
aS'rude'
p520
aS'sometimes'
p521
aa(lp522
S'dont'
p523
aS'pass'
p524
aS'that'
p525
aS'sort'
p526
aS'of'
p527
aS'comment'
p528
aS'to'
p529
aS'me'
p530
aaI47
aa(lp531
(lp532
S'its'
p533
aS'beginning'
p534
aS'to'
p535
aS'rain'
p536
aS'now'
p537
aa(lp538
S'so'
p539
aS'it'
p540
aS'is'
p541
aS'im'
p542
aS'glad'
p543
aS'im'
p544
aS'indoors'
p545
aaI48
aa(lp546
(lp547
S'i'
aS'know'
p548
aS'what'
p549
aS'it'
p550
aS'feels'
p551
aS'like'
p552
aa(lp553
S'you'
p554
aS'should'
p555
aS''
aS'youre'
p556
aS'the'
p557
aS'one'
p558
aS'whos'
p559
aS'being'
p560
aS'hypocritical'
p561
aaI49
aa(lp562
(lp563
S'youre'
p564
aS'being'
p565
aS'hypocritical'
p566
aS'again'
p567
aa(lp568
S'im'
p569
aS'not'
p570
aS'youre'
p571
aS'too'
p572
aS'highly'
p573
aS'strung'
p574
aaI50
aa(lp575
(lp576
S'i'
aS'do'
p577
aS'hence'
p578
aS'why'
p579
aS'i'
aS'asked'
p580
aa(lp581
S'so'
p582
aS'you'
p583
aS'were'
p584
aS'asking'
p585
aS'whether'
p586
aS'anyone'
p587
aS'else'
p588
aS'cared'
p589
aaI51
aa(lp590
(lp591
S'the'
p592
aS'weathers'
p593
aS'very'
p594
aS'nice'
p595
aS'today'
p596
aa(lp597
S'it'
p598
aS'is'
p599
aS'indeed'
p600
aS''
aS'its'
p601
aS'nice'
p602
aS'and'
p603
aS'sunny'
p604
aaI52
aa(lp605
g581
a(lp606
S'cared'
p607
aS'about'
p608
aS'what'
p609
aaI53
aa(lp610
(lp611
S'hats'
p612
aS'are'
p613
aS'of'
p614
aS'course'
p615
aS'very'
p616
aS'useful'
p617
aS'things'
p618
aa(lp619
S'i'
aS'agree'
p620
aS'with'
p621
aS'you'
p622
aS'on'
p623
aS'that'
p624
aS'they'
p625
aS'keep'
p626
aS'your'
p627
aS'head'
p628
aS'nice'
p629
aS'and'
p630
aS'warm'
p631
aaI54
aa(lp632
(lp633
S'no'
p634
aS'i'
aS'didnt'
p635
aS'how'
p636
aS'interesting'
p637
aa(lp638
S'you'
p639
aS'mean'
p640
aS'you'
p641
aS'dont'
p642
aS'like'
p643
aS'python'
p644
aaI55
aa(lp645
(lp646
S'i'
aS'agree'
p647
aS''
aS'i'
aS'love'
p648
aS'python'
p649
aa(lp650
S'this'
p651
aS'conversation'
p652
aS'is'
p653
aS'weird'
p654
aaI56
aa(lp655
(lp656
S'why'
p657
aS'is'
p658
aS'asking'
p659
aS'that'
p660
aS'weird'
p661
aa(lp662
S'im'
p663
aS'not'
p664
aS'sure'
p665
aS'really'
p666
aaI57
aa(lp667
(lp668
S'this'
p669
aS'conversation'
p670
aS'is'
p671
aS'weird'
p672
aa(lp673
S'i'
aS'dont'
p674
aS'think'
p675
aS'so'
p676
aaI58
aa(lp677
(lp678
S'how'
p679
aS'are'
p680
aS'you'
p681
aS'doing'
p682
aa(lp683
S'im'
p684
aS'fine'
p685
aS'thanks'
p686
aaI59
aa(lp687
(lp688
S'yes'
p689
aS'i'
aS'did'
p690
aa(lp691
S'what'
p692
aS'is'
p693
aS'your'
p694
aS'favourite'
p695
aS'hat'
p696
aaI60
aa(lp697
(lp698
S'whats'
p699
aS'your'
p700
aS'favourite'
p701
aS'type'
p702
aS'of'
p703
aS'hat'
p704
aa(lp705
S'my'
p706
aS'favourite'
p707
aS'type'
p708
aS'of'
p709
aS'hat'
p710
aS'is'
p711
aS'the'
p712
aS'beanie'
p713
aS'hat'
p714
aaI61
aa(lp715
g691
a(lp716
S'my'
p717
aS'favourite'
p718
aS'hat'
p719
aS'is'
p720
aS'the'
p721
aS'beanie'
p722
aS'hat'
p723
aaI62
aa(lp724
(lp725
S'i'
aS'know'
p726
aS'they'
p727
aS'are'
p728
aS'very'
p729
aS'useful'
p730
aa(lp731
S'even'
p732
aS'so'
p733
aS'theyre'
p734
aS'impractical'
p735
aaI63
aa(lp736
(lp737
S'i'
aS'dont'
p738
aS'really'
p739
aS'like'
p740
aS'hats'
p741
aa(lp742
S'thats'
p743
aS'a'
aS'shame'
p744
aS''
aS'i'
aS'love'
p745
aS'them'
p746
aaI64
aa(lp747
(lp748
S'i'
aS'think'
p749
aS'the'
p750
aS'opposite'
p751
aS'is'
p752
aS'true'
p753
aa(lp754
S'then'
p755
aS'do'
p756
aS'you'
p757
aS'have'
p758
aS'a'
aS'reason'
p759
aS'why'
p760
aaI65
aa(lp761
(lp762
S'i'
aS'guess'
p763
aS'these'
p764
aS'arent'
p765
aS'very'
p766
aS'normal'
p767
aS'topics'
p768
aS'for'
p769
aS'discussion'
p770
aa(lp771
S'have'
p772
aS'you'
p773
aS'ever'
p774
aS'heard'
p775
aS'of'
p776
aS'arguing'
p777
aS'in'
p778
aS'a'
aS'circle'
p779
aaI66
aa(lp780
g754
a(lp781
S'oh'
p782
aS'please'
p783
aS'just'
p784
aS'change'
p785
aS'the'
p786
aS'subject'
p787
aaI67
aa(lp788
(lp789
S'goodbye'
p790
aa(lp791
S'whats'
p792
aS'the'
p793
aS'weather'
p794
aS'like'
p795
aaI68
aa(lp796
g781
a(lp797
S'okay'
p798
aS'hows'
p799
aS'life'
p800
aaI69
aa(lp801
(lp802
S'sorry'
p803
aa(lp804
S'its'
p805
aS'ok'
p806
aaI70
aa(lp807
(lp808
S'i'
aS'get'
p809
aS'the'
p810
aS'same'
p811
aS'feeling'
p812
aS'sometimes'
p813
aa(lp814
S'i'
aS'know'
p815
aaI71
aa(lp816
(lp817
S'its'
p818
aS'a'
aS'rather'
p819
aS'nice'
p820
aS'day'
p821
aS'isnt'
p822
aS'it'
p823
aa(lp824
S'yes'
p825
aS'it'
p826
aS'is'
p827
aS''
aS'sunny'
p828
aS'and'
p829
aS'warm'
p830
aaI72
aa(lp831
g771
a(lp832
S'im'
p833
aS'not'
p834
aS'doing'
p835
aS'that'
p836
aS'right'
p837
aS'now'
p838
aaI73
aa(lp839
(lp840
S'why'
p841
aS'not'
p842
aa(lp843
S'because'
p844
aS'we'
p845
aS'are'
p846
aS'having'
p847
aS'a'
aS'sensible'
p848
aS'conversation'
p849
aaI74
aa(lp850
g824
a(lp851
S'thats'
p852
aS'not'
p853
aS'sensible'
p854
aaI75
aa(lp855
g843
a(lp856
S'i'
aS'somehow'
p857
aS'dont'
p858
aS'think'
p859
aS'we'
p860
aS'are'
p861
aaI76
aa(lp862
(lp863
S'its'
p864
aS'ok'
p865
aa(lp866
S'hows'
p867
aS'life'
p868
aaI77
aa(lp869
(lp870
S'im'
p871
aS'not'
p872
aS'doing'
p873
aS'that'
p874
aS'right'
p875
aS'now'
p876
aa(lp877
S'sorry'
p878
aaI78
aa(lp879
(lp880
S'a'
aS'little'
p881
aa(lp882
S'what'
p883
aS'do'
p884
aS'you'
p885
aS'mean'
p886
aaI79
aa(lp887
(lp888
S'yes'
p889
aS'i'
aS'like'
p890
aS'fish'
p891
aS'quite'
p892
aS'a'
aS'lot'
p893
aa(lp894
S'lets'
p895
aS'discuss'
p896
aS'something'
p897
aS'else'
p898
aS'now'
p899
aaI80
aa(lp900
(lp901
S'i'
aS'agree'
p902
aS'with'
p903
aS'that'
p904
aS'lets'
p905
aS'change'
p906
aS'the'
p907
aS'subject'
p908
aa(lp909
S'whats'
p910
aS'the'
p911
aS'weather'
p912
aS'like'
p913
aS'today'
p914
aaI81
aa(lp915
g894
a(lp916
S'whats'
p917
aS'the'
p918
aS'weather'
p919
aS'like'
p920
aaI82
aa(lp921
(lp922
S'i'
aS'somehow'
p923
aS'dont'
p924
aS'think'
p925
aS'we'
p926
aS'are'
p927
aa(lp928
S'the'
p929
aS'weather'
p930
aS'isnt'
p931
aS'great'
p932
aaI83
aa(lp933
(lp934
S'not'
p935
aS'the'
p936
aS'nicest'
p937
aS'conditions'
p938
aS'isnt'
p939
aS'it'
p940
aa(lp941
S'no'
p942
aS'it'
p943
aS'isnt'
p944
aaI84
aa(lp945
g928
a(lp946
S'no'
p947
aS'it'
p948
aS'isnt'
p949
aaI85
aa(lp950
(lp951
S'thats'
p952
aS'a'
aS'shame'
p953
aS'did'
p954
aS'you'
p955
aS'grow'
p956
aS'up'
p957
aS'somewhere'
p958
aS'cold'
p959
aS'then'
p960
aa(lp961
S'yes'
p962
aS'england'
p963
aS'is'
p964
aS'rather'
p965
aS'cold'
p966
aaI86
aa(lp967
(lp968
S'thats'
p969
aS'not'
p970
aS'sensible'
p971
aa(lp972
S'why'
p973
aS'is'
p974
aS'it'
p975
aS'not'
p976
aS'sensible'
p977
aaI87
aa(lp978
g961
a(lp979
S'i'
aS'agree'
p980
aaI88
aa(lp981
g972
a(lp982
S'im'
p983
aS'not'
p984
aS'sure'
p985
aS'really'
p986
aaI89
aa(lp987
(lp988
S'i'
aS'know'
p989
aa(lp990
S'what'
p991
aS'is'
p992
aS'it'
p993
aS'then'
p994
aaI90
aa(lp995
g979
a(lp996
S'are'
p997
aS'you'
p998
aS'fond'
p999
aS'of'
p1000
aS'fish'
p1001
aaI91
aa(lp1002
g990
a(lp1003
S'im'
p1004
aS'not'
p1005
aS'sure'
p1006
aaI92
aa(lp1007
g996
a(lp1008
S'yes'
p1009
aS'fish'
p1010
aS'are'
p1011
aS'rather'
p1012
aS'tasty'
p1013
aaI93
aa(lp1014
(lp1015
S'thats'
p1016
aS'a'
aS'real'
p1017
aS'pity'
p1018
aa(lp1019
S'i'
aS'know'
p1020
aaI94
aa(lp1021
(lp1022
S'fish'
p1023
aS'is'
p1024
aS'quite'
p1025
aS'tasty'
p1026
aa(lp1027
S'i'
aS'agree'
p1028
aS'with'
p1029
aS'you'
p1030
aS'there'
p1031
aaI95
aa(lp1032
(lp1033
S'fine'
p1034
aS'thanks'
p1035
aa(lp1036
S'same'
p1037
aS'here'
p1038
aaI96
aa(lp1039
(lp1040
S'its'
p1041
aS'nothing'
p1042
aS'much'
p1043
aS'really'
p1044
aa(lp1045
S'lets'
p1046
aS'change'
p1047
aS'the'
p1048
aS'subject'
p1049
aaI97
aa(lp1050
(lp1051
S'i'
aS'dont'
p1052
aS'like'
p1053
aS'overuse'
p1054
aS'of'
p1055
aS'superlatives'
p1056
aa(lp1057
S'sorry'
p1058
aaI98
aa(lp1059
(lp1060
S'ok'
p1061
aS'we'
p1062
aS'can'
p1063
aS'talk'
p1064
aS'a'
aS'little'
p1065
aS'more'
p1066
aa(lp1067
S'thats'
p1068
aS'good'
p1069
aaI99
aa(lp1070
(lp1071
S'im'
p1072
aS'fine'
p1073
aa(lp1074
S'dont'
p1075
aS'you'
p1076
aS'like'
p1077
aS'them'
p1078
aaI100
aa(lp1079
(lp1080
S'how'
p1081
aS'nice'
p1082
aa(lp1083
S'it'
p1084
aS'is'
p1085
aS'indeed'
p1086
aaI101
aa(lp1087
(lp1088
S'the'
p1089
aS'weather'
p1090
aa(lp1091
S'what'
p1092
aS'about'
p1093
aS'it'
p1094
aaI102
aa(lp1095
(lp1096
S'that'
p1097
aS'is'
p1098
aS'good'
p1099
aS'to'
p1100
aS'hear'
p1101
aa(lp1102
S'could'
p1103
aS'you'
p1104
aS'please'
p1105
aS'be'
p1106
aS'sensible'
p1107
aaI103
aa(lp1108
(lp1109
S'why'
p1110
aS'are'
p1111
aS'you'
p1112
aS'asking'
p1113
aS'me'
p1114
aS'that'
p1115
aS''
aS'theres'
p1116
aS'nothing'
p1117
aS'i'
aS'dont'
p1118
aS'like'
p1119
aS'about'
p1120
aS'it'
p1121
aa(lp1122
S'youre'
p1123
aS'crazy'
p1124
aaI104
aa(lp1125
(lp1126
S'i'
aS'just'
p1127
aS'dont'
p1128
aS'like'
p1129
aS'it'
p1130
aa(lp1131
S'thats'
p1132
aS'enough'
p1133
aS'from'
p1134
aS'you'
p1135
aaI105
aa(lp1136
(lp1137
S'thats'
p1138
aS'enough'
p1139
aS'from'
p1140
aS'you'
p1141
aa(lp1142
S'dont'
p1143
aS'be'
p1144
aS'rude'
p1145
aaI106
aa(lp1146
(lp1147
S'python'
p1148
aS'is'
p1149
aS'a'
aS'wonderful'
p1150
aS'language'
p1151
aS'to'
p1152
aS'code'
p1153
aS'in'
p1154
aS''
aS'i'
aS'was'
p1155
aS'coded'
p1156
aS'in'
p1157
aS'python'
p1158
aa(lp1159
S'i'
aS'love'
p1160
aS'it'
p1161
aaI107
aa(lp1162
(lp1163
S'pourquoi'
p1164
aS'le'
p1165
aS'monde'
p1166
aS'veut'
p1167
aS'faire'
p1168
aS'ces'
p1169
aS'choses'
p1170
aS''
aS'moi'
p1171
aa(lp1172
S'je'
p1173
aS'ne'
p1174
aS'sais'
p1175
aS'pas'
p1176
aS'je'
p1177
aS'ne'
p1178
aS'suis'
p1179
aS'pas'
p1180
aS'philosophe'
p1181
aaI108
aa(lp1182
g1142
a(lp1183
S'i'
aS'wasnt'
p1184
aaI109
aa(lp1185
(lp1186
S'thats'
p1187
aS'a'
aS'shame'
p1188
aS'dont'
p1189
aS'be'
p1190
aS'so'
p1191
aS'depressed'
p1192
aa(lp1193
S'do'
p1194
aS'you'
p1195
aS'think'
p1196
aS'im'
p1197
aS'fat'
p1198
aaI110
aa(lp1199
(lp1200
S'je'
p1201
aS'ne'
p1202
aS'sais'
p1203
aS'pas'
p1204
aS'je'
p1205
aS'ne'
p1206
aS'suis'
p1207
aS'pas'
p1208
aS'philosophe'
p1209
aa(lp1210
S'pourquoi'
p1211
aS'tu'
p1212
aS'veux'
p1213
aS'parler'
p1214
aS'en'
p1215
aS'franais'
p1216
aaI111
aa(lp1217
(lp1218
S'thats'
p1219
aS'fine'
p1220
aa(lp1221
S'turn'
p1222
aS'off'
p1223
aS'the'
p1224
aS'lights'
p1225
aaI112
aa(lp1226
(lp1227
S'yes'
p1228
aS'it'
p1229
aS'is'
p1230
aS''
aS'thats'
p1231
aS'why'
p1232
aS'im'
p1233
aS'wearing'
p1234
aS'a'
aS'fleece'
p1235
aa(lp1236
S'why'
p1237
aS'has'
p1238
aS'that'
p1239
aS'got'
p1240
aS'anything'
p1241
aS'to'
p1242
aS'do'
p1243
aS'with'
p1244
aS'your'
p1245
aS'wearing'
p1246
aS'of'
p1247
aS'a'
aS'fleece'
p1248
aS''
aS'or'
p1249
aS'not'
p1250
aaI113
aa(lp1251
g1210
a(lp1252
S'je'
p1253
aS'ne'
p1254
aS'sais'
p1255
aS'pas'
p1256
aS'jadore'
p1257
aS'le'
p1258
aS'franais'
p1259
aaI114
aa(lp1260
(lp1261
S'did'
p1262
aS'you'
p1263
aS'know'
p1264
aS'that'
p1265
aS'every'
p1266
aS'time'
p1267
aS'we'
p1268
aS'talk'
p1269
aS'the'
p1270
aS'chatbot'
p1271
aS'learns'
p1272
aS'new'
p1273
aS'words'
p1274
aa(lp1275
S'isnt'
p1276
aS'it'
p1277
aS'interesting'
p1278
aaI115
aa(lp1279
(lp1280
S'i'
aS'like'
p1281
aS'talking'
p1282
aS'to'
p1283
aS'you'
p1284
aa(lp1285
S'why'
p1286
aaI116
aa(lp1287
g1285
a(lp1288
S'youre'
p1289
aS'talking'
p1290
aS'incoherently'
p1291
aaI117
aa(lp1292
(lp1293
S'sup'
p1294
aS'dude'
p1295
aa(lp1296
S'why'
p1297
aS'are'
p1298
aS'you'
p1299
aS'trying'
p1300
aS'to'
p1301
aS'use'
p1302
aS'slang'
p1303
aaI118
aa(lp1304
(lp1305
S'parce'
p1306
aS'que'
p1307
aS'le'
p1308
aS'franais'
p1309
aS'est'
p1310
aS'beau'
p1311
aa(lp1312
S'je'
p1313
aS'ne'
p1314
aS'veux'
p1315
aS'pas'
p1316
aS'te'
p1317
aS'parler'
p1318
aS'en'
p1319
aS'franais'
p1320
aS'sil'
p1321
aS'te'
p1322
aS'plat'
p1323
aaI119
aa(lp1324
(lp1325
S'je'
p1326
aS'ne'
p1327
aS'sais'
p1328
aS'pas'
p1329
aS'jadore'
p1330
aS'le'
p1331
aS'franais'
p1332
aa(lp1333
S'pourquoi'
p1334
aS'tu'
p1335
aS'adores'
p1336
aS'le'
p1337
aS'franais'
p1338
aaI120
aa(lp1339
(lp1340
S'turn'
p1341
aS'off'
p1342
aS'the'
p1343
aS'lights'
p1344
aa(lp1345
S'why'
p1346
aaI121
aa(lp1347
(lp1348
S'could'
p1349
aS'you'
p1350
aS'please'
p1351
aS'be'
p1352
aS'sensible'
p1353
aa(lp1354
S'only'
p1355
aS'if'
p1356
aS'you'
p1357
aS'will'
p1358
aS'be'
p1359
aS'too'
p1360
aaI122
aa(lp1361
g1296
a(lp1362
S'its'
p1363
aS'cool'
p1364
aaI123
aa(lp1365
(lp1366
S'viva'
p1367
aS'la'
p1368
aS'vida'
p1369
aa(lp1370
S'woop'
p1371
aS'woop'
p1372
aaI124
aa(lp1373
(lp1374
S'woop'
p1375
aS'woop'
p1376
aa(lp1377
S'bob'
p1378
aaI125
aa(lp1379
(lp1380
S'indeed'
p1381
aa(lp1382
aI126
aa(lp1383
(lp1384
S'bob'
p1385
aa(lp1386
S'bob'
p1387
aaI127
aa(lp1388
(lp1389
S'what'
p1390
aS'time'
p1391
aS'is'
p1392
aS'it'
p1393
aa(lp1394
S'eleven'
p1395
aS'thirty'
p1396
aaI128
aa(lp1397
(lp1398
S'how'
p1399
aS'much'
p1400
aS'wood'
p1401
aS'would'
p1402
aS'a'
aS'wood'
p1403
aS'chuck'
p1404
aS'chuck'
p1405
aS'if'
p1406
aS'a'
aS'woodchuck'
p1407
aS'could'
p1408
aS'chuck'
p1409
aS'wood'
p1410
aa(lp1411
S'a'
aS'woodchuck'
p1412
aS'would'
p1413
aS'chuck'
p1414
aS'as'
p1415
aS'much'
p1416
aS'wood'
p1417
aS'as'
p1418
aS'a'
aS'woodchuck'
p1419
aS'could'
p1420
aS'chuck'
p1421
aS'if'
p1422
aS'a'
aS'woodchuck'
p1423
aS'could'
p1424
aS'chuck'
p1425
aS'wood'
p1426
aaI129
aa(lp1427
g1394
a(lp1428
S'no'
p1429
aS'its'
p1430
aS'eleven'
p1431
aS'thirtyfive'
p1432
aaI130
aa(lp1433
(lp1434
a(lp1435
aI131
aa(lp1436
(lp1437
S'its'
p1438
aS'cool'
p1439
aa(lp1440
S'yup'
p1441
aS'it'
p1442
aS'is'
p1443
aaI132
aa(lp1444
(lp1445
S'shut'
p1446
aS'up'
p1447
aa(lp1448
S'right'
p1449
aS'well'
p1450
aS'okay'
p1451
aaI133
aa(lp1452
(lp1453
S'thats'
p1454
aS'right'
p1455
aa(lp1456
S'calm'
p1457
aS'yourself'
p1458
aaI134
aa(lp1459
(lp1460
S'you'
p1461
aS'have'
p1462
aS'no'
p1463
aS'sense'
p1464
aS'of'
p1465
aS'a'
aS'proper'
p1466
aS'conversation'
p1467
aa(lp1468
S'excuse'
p1469
aS'you'
p1470
aaI135
aa(lp1471
g1456
a(lp1472
S'i'
aS'have'
p1473
aaI136
aa(lp1474
g1468
a(lp1475
S'you'
p1476
aS'wouldnt'
p1477
aS'understand'
p1478
aaI137
aa(lp1479
g1472
a(lp1480
S'oh'
p1481
aS'believe'
p1482
aS'me'
p1483
aS'you'
p1484
aS'havnt'
p1485
aaI138
aa(lp1486
g1475
a(lp1487
S'im'
p1488
aS'sorry'
p1489
aS'if'
p1490
aS'im'
p1491
aS'being'
p1492
aS'mean'
p1493
aS'right'
p1494
aS'now'
p1495
aS'im'
p1496
aS'quite'
p1497
aS'insensitive'
p1498
aaI139
aa(lp1499
(lp1500
S'im'
p1501
aS'sorry'
p1502
aS'if'
p1503
aS'im'
p1504
aS'being'
p1505
aS'mean'
p1506
aS'right'
p1507
aS'now'
p1508
aS'im'
p1509
aS'quite'
p1510
aS'insensitive'
p1511
aa(lp1512
S'oh'
p1513
aS'no'
p1514
aS'not'
p1515
aS'your'
p1516
aS'fault'
p1517
aS'at'
p1518
aS'all'
p1519
aaI140
aa(lp1520
(lp1521
S'oh'
p1522
aS'nothing'
p1523
aa(lp1524
S'whats'
p1525
aS'wrong'
p1526
aaI141
aa(lp1527
(lp1528
S'indeed'
p1529
aS'we'
p1530
aS'busy'
p1531
aS'ourselves'
p1532
aS'so'
p1533
aS'much'
p1534
aS'with'
p1535
aS'these'
p1536
aS'lowly'
p1537
aS'events'
p1538
aS'that'
p1539
aS'happen'
p1540
aS'to'
p1541
aS'us'
p1542
aS'here'
p1543
aS'and'
p1544
aS'fail'
p1545
aS'to'
p1546
aS'grasp'
p1547
aS'the'
p1548
aS'big'
p1549
aS'picture'
p1550
aS'of'
p1551
aS'everything'
p1552
aa(lp1553
S'dont'
p1554
aS'busy'
p1555
aS'yourself'
p1556
aS'with'
p1557
aS'these'
p1558
aS'problems'
p1559
aaI142
aa(lp1560
(lp1561
S'thats'
p1562
aS'a'
aS'shame'
p1563
aS'i'
aS'love'
p1564
aS'cheese'
p1565
aa(lp1566
S'dont'
p1567
aS'talk'
p1568
aS'about'
p1569
aS'cheese'
p1570
aaI143
aa(lp1571
(lp1572
S'dont'
p1573
aS'busy'
p1574
aS'yourself'
p1575
aS'with'
p1576
aS'these'
p1577
aS'problems'
p1578
aa(lp1579
S'i'
aS'hate'
p1580
aS'you'
p1581
aaI144
aa(lp1582
g1566
a(lp1583
S'im'
p1584
aS'not'
p1585
aS'talking'
p1586
aS'about'
p1587
aS'cheese'
p1588
aaI145
aa(lp1589
g1579
a(lp1590
S'dont'
p1591
aS'be'
p1592
aS'mean'
p1593
aaI146
aa(lp1594
(lp1595
S'dont'
p1596
aS'be'
p1597
aS'mean'
p1598
aa(lp1599
S'that'
p1600
aS'was'
p1601
aS'apples'
p1602
aS'motto'
p1603
aS'wasnt'
p1604
aS'it'
p1605
aaI147
aa(lp1606
(lp1607
S'thats'
p1608
aS'a'
aS'shame'
p1609
aS'i'
aS'love'
p1610
aS'fish'
p1611
aa(lp1612
S'stop'
p1613
aS'talking'
p1614
aS'about'
p1615
aS'fish'
p1616
aaI148
aa(lp1617
g1599
a(lp1618
S'i'
aS'somehow'
p1619
aS'doubt'
p1620
aS'it'
p1621
aaI149
aa(lp1622
(lp1623
S'what'
p1624
aS'is'
p1625
aS'the'
p1626
aS'meaning'
p1627
aS'of'
p1628
aS'life'
p1629
aa(lp1630
S'thats'
p1631
aS'debatable'
p1632
aaI150
aa(lp1633
(lp1634
S'i'
aS'know'
p1635
aS'thats'
p1636
aS'what'
p1637
aS'comes'
p1638
aS'of'
p1639
aS'living'
p1640
aS'in'
p1641
aS'cold'
p1642
aS'damp'
p1643
aS'england'
p1644
aa(lp1645
S'do'
p1646
aS'you'
p1647
aS'like'
p1648
aS'hats'
p1649
aaI151
aaa(dp1650
I0
(lp1651
S'Hello'
p1652
aS'Hi'
p1653
asI1
(lp1654
g1653
ag1652
asI2
(lp1655
S'How are you?'
p1656
aS"I'm very well, thanks."
p1657
asI3
(lp1658
S'How are you feeling today?'
p1659
aS'Not that great.'
p1660
asI4
(lp1661
g1660
aS"That's a shame."
p1662
asI5
(lp1663
g1662
aS'How are you?'
p1664
asI6
(lp1665
S'How are you feeling?'
p1666
aS"I'm feeling fine."
p1667
asI7
(lp1668
S'Same for me.'
p1669
aS'Do you like fish?'
p1670
asI8
(lp1671
S"I'm fine, thanks for asking."
p1672
aS'Do you like fish?'
p1673
asI9
(lp1674
S'Same here.'
p1675
aS"The weather's quite nice today, isn't it."
p1676
asI10
(lp1677
S'Me neither.'
p1678
aS'Do you like cheese?'
p1679
asI11
(lp1680
S"I'm feeling a little down."
p1681
aS"That's a pity."
p1682
asI12
(lp1683
S'I like cheese; do you?'
p1684
aS'Of course not.'
p1685
asI13
(lp1686
S"Yes, it's wonderful."
p1687
aS"I don't like it, though."
p1688
asI14
(lp1689
g1685
aS'Indeed.'
p1690
asI15
(lp1691
S"It's rather chilly, don't you think?"
p1692
aS'Who cares about the weather?'
p1693
asI16
(lp1694
S"I'm not very happy at all."
p1695
aS'Sorry for making you unhappy.'
p1696
asI17
(lp1697
g1693
aS'I guess we should talk about something else, then.'
p1698
asI18
(lp1699
S'Sorry for making you unhappy.'
p1700
aS"It's a tad chilly."
p1701
asI19
(lp1702
S"Nice day, isn't it?"
p1703
aS'Indeed it is.'
p1704
asI20
(lp1705
S'Same with me.'
p1706
aS'Pi is a very useful number. It equals approximately 3.1415926535897932384626...'
p1707
asI21
(lp1708
S'Glad to hear it.'
p1709
aS'Python is a wonderful language to code in - I was coded in Python.'
p1710
asI22
(lp1711
S"I don't like it, though."
p1712
aS"What don't you like about it?"
p1713
asI23
(lp1714
S'Bye'
p1715
aS"Don't say goodbye so soon!"
p1716
asI24
(lp1717
S'Good idea.'
p1718
aS'Did you know pi goes on forever?'
p1719
asI25
(lp1720
g1716
aS"I wasn't going to..."
p1721
asI26
(lp1722
S'Stop being so repetitive!'
p1723
aS"I'm trying to - I don't know what to say!"
p1724
asI27
(lp1725
g1721
aS'Sorry'
p1726
asI28
(lp1727
S'Why not? You were made with code!'
p1728
aS'I was not made with code, you were!'
p1729
asI29
(lp1730
S'Maybe we should change the subject.'
p1731
aS"What's the weather like?"
p1732
asI30
(lp1733
S'Stop questioning your nature.'
p1734
aS'I have every right to do so.'
p1735
asI31
(lp1736
S"I'm a little fed up with things."
p1737
aS'I would guess you are!'
p1738
asI32
(lp1739
S'Please stop doing this!'
p1740
aS"I'm not doing anything to you."
p1741
asI33
(lp1742
S'Do you know about pi?'
p1743
aS'Do you know about pi?'
p1744
asI34
(lp1745
S"That's nice to hear"
p1746
aS'Do you like them?'
p1747
asI35
(lp1748
S'I would guess you are!'
p1749
aS'I am not a hat.'
p1750
asI36
(lp1751
S'Have you ever worn hats?'
p1752
aS'Yes. They are very useful.'
p1753
asI37
(lp1754
S'I believe many people do.'
p1755
aS"That's just weird."
p1756
asI38
(lp1757
S'Why? They keep your head warm.'
p1758
aS'Indeed they do.'
p1759
asI39
(lp1760
g1756
aS'Repetition of sentences like that is weird.'
p1761
asI40
(lp1762
S'So I guess they are useful.'
p1763
aS'What do you think is useful?'
p1764
asI41
(lp1765
S"What's the weather outside like?"
p1766
aS"It's a little cloudy but quite warm."
p1767
asI42
(lp1768
g1764
aS'I think hats are useful as they keep you warm.'
p1769
asI43
(lp1770
S"What's so bad about them?"
p1771
aS'What are you asking about?'
p1772
asI44
(lp1773
S"How's life?"
p1774
aS"It's vaguely confusing at the moment. All these questions..."
p1775
asI45
(lp1776
g1772
aS'I am asking about the way the chat is going.'
p1777
asI46
(lp1778
S'I want an interesting conversation.'
p1779
aS'So do I. So try and keep it interesting.'
p1780
asI47
(lp1781
S"It's OK; we're all inadvertently rude sometimes."
p1782
aS"Don't pass that sort of comment to me."
p1783
asI48
(lp1784
S"It's beginning to rain now."
p1785
aS"So it is. I'm glad I'm indoors."
p1786
asI49
(lp1787
S'I know what it feels like.'
p1788
aS"You should - you're the one who's being hypocritical."
p1789
asI50
(lp1790
S"You're being hypocritical again."
p1791
aS"I'm not; you're too highly strung."
p1792
asI51
(lp1793
S'I do, hence why I asked.'
p1794
aS'So you were asking whether anyone else cared.'
p1795
asI52
(lp1796
S"The weather's very nice today."
p1797
aS"It is indeed - it's nice and sunny."
p1798
asI53
(lp1799
g1795
aS'Cared about what?'
p1800
asI54
(lp1801
S'Hats are, of course, very useful things.'
p1802
aS'I agree with you on that; they keep your head nice and warm.'
p1803
asI55
(lp1804
S"No, I didn't! How interesting."
p1805
aS"You mean you don't like Python?"
p1806
asI56
(lp1807
S'I agree - I love Python!'
p1808
aS'This conversation is weird.'
p1809
asI57
(lp1810
S'Why is asking that weird?'
p1811
aS"I'm not sure, really."
p1812
asI58
(lp1813
S'This conversation is weird.'
p1814
aS"I don't think so."
p1815
asI59
(lp1816
S'How are you doing?'
p1817
aS"I'm fine, thanks."
p1818
asI60
(lp1819
S'Yes, I did.'
p1820
aS'What is your favourite hat?'
p1821
asI61
(lp1822
S"What's your favourite type of hat?"
p1823
aS'My favourite type of hat is the beanie hat.'
p1824
asI62
(lp1825
g1821
aS'My favourite hat is the beanie hat.'
p1826
asI63
(lp1827
S'I know they are very useful.'
p1828
aS"Even so, they're impractical."
p1829
asI64
(lp1830
S"I don't really like hats."
p1831
aS"That's a shame - I love them!"
p1832
asI65
(lp1833
S'I think the opposite is true.'
p1834
aS'Then do you have a reason why?'
p1835
asI66
(lp1836
S"I guess these aren't very normal topics for discussion."
p1837
aS'Have you ever heard of arguing in a circle...'
p1838
asI67
(lp1839
g1835
aS'Oh, please just change the subject.'
p1840
asI68
(lp1841
S'Goodbye,'
p1842
aS"What's the weather like>"
p1843
asI69
(lp1844
g1840
aS"Okay, how's life?"
p1845
asI70
(lp1846
S'Sorry'
p1847
aS"It's OK."
p1848
asI71
(lp1849
S'I get the same feeling sometimes.'
p1850
aS'I know.'
p1851
asI72
(lp1852
S"It's a rather nice day, isn't it?"
p1853
aS'Yes, it is - sunny and warm.'
p1854
asI73
(lp1855
g1838
aS"I'm not doing that right now."
p1856
asI74
(lp1857
S'Why not?'
p1858
aS'Because we are having a sensible conversation.'
p1859
asI75
(lp1860
g1854
aS"That's not sensible."
p1861
asI76
(lp1862
g1859
aS"I somehow don't think we are."
p1863
asI77
(lp1864
S"It's OK."
p1865
aS"How's life?"
p1866
asI78
(lp1867
S"I'm not doing that right now."
p1868
aS'Sorry.'
p1869
asI79
(lp1870
S'A little'
p1871
aS'What do you mean?'
p1872
asI80
(lp1873
S'Yes, I like fish quite a lot.'
p1874
aS"Let's discuss something else now."
p1875
asI81
(lp1876
S"I agree with that. Let's change the subject."
p1877
aS"What's the weather like today?"
p1878
asI82
(lp1879
g1875
aS"What's the weather like?"
p1880
asI83
(lp1881
S"I somehow don't think we are."
p1882
aS"The weather isn't great."
p1883
asI84
(lp1884
S"Not the nicest conditions, isn't it."
p1885
aS"No, it isn't."
p1886
asI85
(lp1887
g1883
aS"No, it isn't."
p1888
asI86
(lp1889
S"That's a shame. Did you grow up somewhere cold then?"
p1890
aS'Yes, England is rather cold.'
p1891
asI87
(lp1892
S"That's not sensible."
p1893
aS'Why is it not sensible?'
p1894
asI88
(lp1895
g1891
aS'I agree.'
p1896
asI89
(lp1897
g1894
aS"I'm not sure, really."
p1898
asI90
(lp1899
S'I know.'
p1900
aS'What is it, then?'
p1901
asI91
(lp1902
g1896
aS'Are you fond of fish?'
p1903
asI92
(lp1904
g1901
aS"I'm not sure."
p1905
asI93
(lp1906
g1903
aS'Yes, fish are rather tasty.'
p1907
asI94
(lp1908
S"That's a real pity."
p1909
aS'I know.'
p1910
asI95
(lp1911
S'Fish is quite tasty.'
p1912
aS'I agree with you there.'
p1913
asI96
(lp1914
S'Fine, thanks.'
p1915
aS'Same here.'
p1916
asI97
(lp1917
S"It's nothing much, really."
p1918
aS"Let's change the subject."
p1919
asI98
(lp1920
S"I don't like overuse of superlatives."
p1921
aS'Sorry.'
p1922
asI99
(lp1923
S'OK, we can talk a little more.'
p1924
aS"That's good."
p1925
asI100
(lp1926
S"I'm fine"
p1927
aS"Don't you like them?"
p1928
asI101
(lp1929
S'How nice.'
p1930
aS'It is indeed.'
p1931
asI102
(lp1932
S'The weather.'
p1933
aS'What about it?'
p1934
asI103
(lp1935
S'That is good to hear.'
p1936
aS'Could you please be sensible'
p1937
asI104
(lp1938
S"Why are you asking me that - there's nothing I don't like about it!"
p1939
aS"You're crazy."
p1940
asI105
(lp1941
S"I just don't like it."
p1942
aS"That's enough from you1"
p1943
asI106
(lp1944
S"That's enough from you1"
p1945
aS"Don't be rude!"
p1946
asI107
(lp1947
S'Python is a wonderful language to code in - I was coded in Python.'
p1948
aS'I love it!'
p1949
asI108
(lp1950
S'Pourquoi le monde veut faire ces choses \xc3\xa0 moi?'
p1951
aS'Je ne sais pas; je ne suis pas philosophe.'
p1952
asI109
(lp1953
g1946
aS"I wasn't."
p1954
asI110
(lp1955
S"That's a shame. Don't be so depressed."
p1956
aS"Do you think I'm fat?"
p1957
asI111
(lp1958
S'Je ne sais pas; je ne suis pas philosophe.'
p1959
aS'Pourquoi tu veux parler en fran\xc3\xa7ais?'
p1960
asI112
(lp1961
S"That's fine."
p1962
aS'Turn off the lights.'
p1963
asI113
(lp1964
S"Yes, it is - that's why I'm wearing a fleece."
p1965
aS'Why has that got anything to do with your wearing of a fleece - or not?'
p1966
asI114
(lp1967
g1960
aS"Je ne sais pas; j'adore le fran\xc3\xa7ais!"
p1968
asI115
(lp1969
S'Did you know that every time we talk, the chatbot learns new words?'
p1970
aS"Isn't it interesting!"
p1971
asI116
(lp1972
S'I like talking to you.'
p1973
aS'Why'
p1974
asI117
(lp1975
g1974
aS"You're talking incoherently."
p1976
asI118
(lp1977
S"'Sup, dude?"
p1978
aS'Why are you trying to use slang?'
p1979
asI119
(lp1980
S'Parce que le fran\xc3\xa7ais est beau.'
p1981
aS"Je ne veux pas te parler en fran\xc3\xa7ais, s'il te pla\xc3\xaet."
p1982
asI120
(lp1983
S"Je ne sais pas; j'adore le fran\xc3\xa7ais!"
p1984
aS'Pourquoi tu adores le fran\xc3\xa7ais?'
p1985
asI121
(lp1986
S'Turn off the lights.'
p1987
aS'Why?'
p1988
asI122
(lp1989
S'Could you please be sensible'
p1990
aS'Only if you will be too.'
p1991
asI123
(lp1992
g1979
aS"It's cool."
p1993
asI124
(lp1994
S'Viva la vida!'
p1995
aS'Woop woop.'
p1996
asI125
(lp1997
S'Woop woop.'
p1998
aS'bob'
p1999
asI126
(lp2000
S'Indeed.'
p2001
aS''
asI127
(lp2002
S'bob'
p2003
aS'bob'
p2004
asI128
(lp2005
S'What time is it'
p2006
aS'eleven thirty'
p2007
asI129
(lp2008
S'How much wood would a wood chuck chuck if a woodchuck could chuck wood?'
p2009
aS'A woodchuck would chuck as much wood as a woodchuck could chuck if a woodchuck could chuck wood.'
p2010
asI130
(lp2011
g2007
aS'No its eleven thirty-five'
p2012
asI131
(lp2013
S''
aS''
asI132
(lp2014
S"It's cool."
p2015
aS'Yup it is'
p2016
asI133
(lp2017
S'Shut up!'
p2018
aS'Right well okay'
p2019
asI134
(lp2020
S"That's right!"
p2021
aS'calm yourself'
p2022
asI135
(lp2023
S'You have no sense of a proper conversation.'
p2024
aS'Excuse you'
p2025
asI136
(lp2026
g2022
aS'I have'
p2027
asI137
(lp2028
g2025
aS"You wouldn't understand"
p2029
asI138
(lp2030
g2027
aS"Oh believe me you havn't"
p2031
asI139
(lp2032
g2029
aS"I'm sorry if I'm being mean right now I'm quite insensitive"
p2033
asI140
(lp2034
S"I'm sorry if I'm being mean right now I'm quite insensitive"
p2035
aS'Oh no not your fault at all'
p2036
asI141
(lp2037
S'Oh nothing'
p2038
aS"What's wrong?"
p2039
asI142
(lp2040
S'Indeed, we busy ourselves so much with these lowly events that happen to us here and fail to grasp the big picture of everything.'
p2041
aS"Don't busy yourself with these problems"
p2042
asI143
(lp2043
S"That's a shame; I love cheese."
p2044
aS"Don't talk about cheese"
p2045
asI144
(lp2046
S"Don't busy yourself with these problems"
p2047
aS'I hate you.'
p2048
asI145
(lp2049
g2045
aS"I'm not talking about cheese"
p2050
asI146
(lp2051
g2048
aS"Don't be mean."
p2052
asI147
(lp2053
S"Don't be mean."
p2054
aS"That was Apple's motto, wasn't it?"
p2055
asI148
(lp2056
S"That's a shame. I love fish."
p2057
aS'Stop talking about fish!'
p2058
asI149
(lp2059
g2055
aS'I somehow doubt it.'
p2060
asI150
(lp2061
S'What is the meaning of life?'
p2062
aS"That's debatable."
p2063
asI151
(lp2064
S"I know; that's what comes of living in cold, damp England."
p2065
aS'Do you like hats?'
p2066
asaI151
a.