(lp1
(lp2
(lp3
S'hello'
p4
aI1
aa(lp5
S'hi'
p6
aI2
aa(lp7
g4
aI1
aa(lp8
S'how'
p9
aI7
aa(lp10
S'are'
p11
aI24
aa(lp12
S'you'
p13
aI55
aa(lp14
S'im'
p15
aI20
aa(lp16
S'very'
p17
aI8
aa(lp18
S'well'
p19
aI1
aa(lp20
S'thanks'
p21
aI4
aa(lp22
S'feeling'
p23
aI5
aa(lp24
S'today'
p25
aI4
aa(lp26
S'not'
p27
aI22
aa(lp28
S'that'
p29
aI13
aa(lp30
S'great'
p31
aI4
aa(lp32
S'thats'
p33
aI17
aa(lp34
S'a'
aI27
aa(lp35
S'shame'
p36
aI5
aa(lp37
S'fine'
p38
aI6
aa(lp39
S'same'
p40
aI5
aa(lp41
S'for'
p42
aI5
aa(lp43
S'me'
p44
aI5
aa(lp45
S'do'
p46
aI19
aa(lp47
S'like'
p48
aI23
aa(lp49
S'fish'
p50
aI7
aa(lp51
S'asking'
p52
aI8
aa(lp53
S'here'
p54
aI2
aa(lp55
S'the'
p56
aI29
aa(lp57
S'weathers'
p58
aI2
aa(lp59
S'quite'
p60
aI4
aa(lp61
S'nice'
p62
aI8
aa(lp63
S'isnt'
p64
aI9
aa(lp65
S'it'
p66
aI29
aa(lp67
S'neither'
p68
aI1
aa(lp69
S'cheese'
p70
aI2
aa(lp71
S'little'
p72
aI5
aa(lp73
S'down'
p74
aI1
aa(lp75
S'pity'
p76
aI2
aa(lp77
S'i'
aI51
aa(lp78
S'of'
p79
aI13
aa(lp80
S'course'
p81
aI3
aa(lp82
S'yes'
p83
aI10
aa(lp84
S'its'
p85
aI13
aa(lp86
S'wonderful'
p87
aI3
aa(lp88
S'dont'
p89
aI20
aa(lp90
S'though'
p91
aI2
aa(lp92
S'indeed'
p93
aI5
aa(lp94
S'rather'
p95
aI5
aa(lp96
S'chilly'
p97
aI2
aa(lp98
S'think'
p99
aI9
aa(lp100
S'who'
p101
aI2
aa(lp102
S'cares'
p103
aI2
aa(lp104
S'about'
p105
aI13
aa(lp106
S'weather'
p107
aI10
aa(lp108
S'happy'
p109
aI1
aa(lp110
S'at'
p111
aI2
aa(lp112
S'all'
p113
aI3
aa(lp114
S'sorry'
p115
aI6
aa(lp116
S'making'
p117
aI2
aa(lp118
S'unhappy'
p119
aI2
aa(lp120
S'guess'
p121
aI5
aa(lp122
S'we'
p123
aI8
aa(lp124
S'should'
p125
aI3
aa(lp126
S'talk'
p127
aI3
aa(lp128
S'something'
p129
aI3
aa(lp130
S'else'
p131
aI5
aa(lp132
S'then'
p133
aI6
aa(lp134
S'tad'
p135
aI1
aa(lp136
S'day'
p137
aI2
aa(lp138
S'is'
p139
aI30
aa(lp140
S'with'
p141
aI8
aa(lp142
S'pi'
p143
aI4
aa(lp144
S'useful'
p145
aI8
aa(lp146
S'number'
p147
aI1
aa(lp148
S'equals'
p149
aI1
aa(lp150
S'approximately'
p151
aI1
aa(lp152
S'glad'
p153
aI2
aa(lp154
S'to'
p155
aI17
aa(lp156
S'hear'
p157
aI3
aa(lp158
S'python'
p159
aI6
aa(lp160
S'language'
p161
aI2
aa(lp162
S'code'
p163
aI4
aa(lp164
S'in'
p165
aI6
aa(lp166
S''
aI13
aa(lp167
S'was'
p168
aI3
aa(lp169
S'coded'
p170
aI2
aa(lp171
S'what'
p172
aI14
aa(lp173
S'bye'
p174
aI1
aa(lp175
S'say'
p176
aI3
aa(lp177
S'goodbye'
p178
aI3
aa(lp179
S'so'
p180
aI14
aa(lp181
S'soon'
p182
aI2
aa(lp183
S'good'
p184
aI3
aa(lp185
S'idea'
p186
aI1
aa(lp187
S'did'
p188
aI4
aa(lp189
S'know'
p190
aI10
aa(lp191
S'goes'
p192
aI1
aa(lp193
S'on'
p194
aI2
aa(lp195
S'forever'
p196
aI1
aa(lp197
S'wasnt'
p198
aI3
aa(lp199
S'going'
p200
aI3
aa(lp201
S'stop'
p202
aI3
aa(lp203
S'being'
p204
aI3
aa(lp205
S'repetitive'
p206
aI1
aa(lp207
S'trying'
p208
aI3
aa(lp209
S'why'
p210
aI17
aa(lp211
S'were'
p212
aI5
aa(lp213
S'made'
p214
aI2
aa(lp215
S'maybe'
p216
aI1
aa(lp217
S'change'
p218
aI5
aa(lp219
S'subject'
p220
aI5
aa(lp221
S'whats'
p222
aI7
aa(lp223
S'questioning'
p224
aI1
aa(lp225
S'your'
p226
aI7
aa(lp227
S'nature'
p228
aI1
aa(lp229
S'have'
p230
aI6
aa(lp231
S'every'
p232
aI2
aa(lp233
S'right'
p234
aI3
aa(lp235
S'fed'
p236
aI1
aa(lp237
S'up'
p238
aI2
aa(lp239
S'things'
p240
aI2
aa(lp241
S'would'
p242
aI2
aa(lp243
S'please'
p244
aI5
aa(lp245
S'doing'
p246
aI5
aa(lp247
S'this'
p248
aI3
aa(lp249
S'anything'
p250
aI2
aa(lp251
S'them'
p252
aI4
aa(lp253
S'am'
p254
aI2
aa(lp255
S'hat'
p256
aI8
aa(lp257
S'ever'
p258
aI3
aa(lp259
S'worn'
p260
aI1
aa(lp261
S'hats'
p262
aI4
aa(lp263
S'they'
p264
aI7
aa(lp265
S'believe'
p266
aI1
aa(lp267
S'many'
p268
aI1
aa(lp269
S'people'
p270
aI1
aa(lp271
S'just'
p272
aI5
aa(lp273
S'weird'
p274
aI6
aa(lp275
S'keep'
p276
aI4
aa(lp277
S'head'
p278
aI2
aa(lp279
S'warm'
p280
aI6
aa(lp281
S'repetition'
p282
aI1
aa(lp283
S'sentences'
p284
aI1
aa(lp285
S'outside'
p286
aI1
aa(lp287
S'cloudy'
p288
aI1
aa(lp289
S'but'
p290
aI1
aa(lp291
S'as'
p292
aI1
aa(lp293
S'bad'
p294
aI1
aa(lp295
S'hows'
p296
aI3
aa(lp297
S'life'
p298
aI3
aa(lp299
S'vaguely'
p300
aI1
aa(lp301
S'confusing'
p302
aI1
aa(lp303
S'moment'
p304
aI1
aa(lp305
S'these'
p306
aI2
aa(lp307
S'questions'
p308
aI1
aa(lp309
S'way'
p310
aI1
aa(lp311
S'chat'
p312
aI1
aa(lp313
S'want'
p314
aI1
aa(lp315
S'an'
p316
aI1
aa(lp317
S'interesting'
p318
aI4
aa(lp319
S'conversation'
p320
aI5
aa(lp321
S'try'
p322
aI1
aa(lp323
S'and'
p324
aI5
aa(lp325
S'ok'
p326
aI4
aa(lp327
S'inadvertently'
p328
aI1
aa(lp329
S'rude'
p330
aI3
aa(lp331
S'sometimes'
p332
aI2
aa(lp333
S'pass'
p334
aI1
aa(lp335
S'sort'
p336
aI1
aa(lp337
S'comment'
p338
aI1
aa(lp339
S'beginning'
p340
aI1
aa(lp341
S'rain'
p342
aI1
aa(lp343
S'now'
p344
aI5
aa(lp345
S'indoors'
p346
aI1
aa(lp347
S'feels'
p348
aI1
aa(lp349
S'youre'
p350
aI5
aa(lp351
S'one'
p352
aI1
aa(lp353
S'whos'
p354
aI1
aa(lp355
S'hypocritical'
p356
aI2
aa(lp357
S'again'
p358
aI1
aa(lp359
S'too'
p360
aI2
aa(lp361
S'highly'
p362
aI1
aa(lp363
S'strung'
p364
aI1
aa(lp365
S'hence'
p366
aI1
aa(lp367
S'asked'
p368
aI1
aa(lp369
S'whether'
p370
aI2
aa(lp371
S'anyone'
p372
aI2
aa(lp373
S'cared'
p374
aI3
aa(lp375
S'sunny'
p376
aI3
aa(lp377
S'agree'
p378
aI6
aa(lp379
S'no'
p380
aI3
aa(lp381
S'didnt'
p382
aI1
aa(lp383
S'mean'
p384
aI2
aa(lp385
S'love'
p386
aI3
aa(lp387
S'sure'
p388
aI3
aa(lp389
S'really'
p390
aI4
aa(lp391
S'favourite'
p392
aI5
aa(lp393
S'type'
p394
aI2
aa(lp395
S'my'
p396
aI2
aa(lp397
S'beanie'
p398
aI2
aa(lp399
S'even'
p400
aI1
aa(lp401
S'theyre'
p402
aI1
aa(lp403
S'impractical'
p404
aI1
aa(lp405
S'opposite'
p406
aI1
aa(lp407
S'true'
p408
aI1
aa(lp409
S'reason'
p410
aI2
aa(lp411
S'arent'
p412
aI1
aa(lp413
S'normal'
p414
aI1
aa(lp415
S'topics'
p416
aI1
aa(lp417
S'discussion'
p418
aI1
aa(lp419
S'heard'
p420
aI2
aa(lp421
S'arguing'
p422
aI2
aa(lp423
S'circle'
p424
aI2
aa(lp425
S'oh'
p426
aI2
aa(lp427
S'okay'
p428
aI1
aa(lp429
S'get'
p430
aI1
aa(lp431
S'because'
p432
aI2
aa(lp433
S'having'
p434
aI2
aa(lp435
S'sensible'
p436
aI8
aa(lp437
S'somehow'
p438
aI2
aa(lp439
S'lot'
p440
aI1
aa(lp441
S'lets'
p442
aI4
aa(lp443
S'discuss'
p444
aI2
aa(lp445
S'nicest'
p446
aI1
aa(lp447
S'conditions'
p448
aI1
aa(lp449
S'grow'
p450
aI1
aa(lp451
S'somewhere'
p452
aI1
aa(lp453
S'cold'
p454
aI3
aa(lp455
S'england'
p456
aI2
aa(lp457
S'fond'
p458
aI2
aa(lp459
S'tasty'
p460
aI2
aa(lp461
S'real'
p462
aI1
aa(lp463
S'there'
p464
aI1
aa(lp465
S'nothing'
p466
aI2
aa(lp467
S'much'
p468
aI1
aa(lp469
S'overuse'
p470
aI1
aa(lp471
S'superlatives'
p472
aI1
aa(lp473
S'can'
p474
aI1
aa(lp475
S'more'
p476
aI1
aa(lp477
S'could'
p478
aI2
aa(lp479
S'be'
p480
aI6
aa(lp481
S'theres'
p482
aI1
aa(lp483
S'crazy'
p484
aI1
aa(lp485
S'enough'
p486
aI2
aa(lp487
S'from'
p488
aI2
aa(lp489
S'pourquoi'
p490
aI4
aa(lp491
S'le'
p492
aI5
aa(lp493
S'monde'
p494
aI1
aa(lp495
S'veut'
p496
aI1
aa(lp497
S'faire'
p498
aI1
aa(lp499
S'ces'
p500
aI1
aa(lp501
S'choses'
p502
aI1
aa(lp503
S'moi'
p504
aI1
aa(lp505
S'je'
p506
aI7
aa(lp507
S'ne'
p508
aI7
aa(lp509
S'sais'
p510
aI4
aa(lp511
S'pas'
p512
aI7
aa(lp513
S'suis'
p514
aI2
aa(lp515
S'philosophe'
p516
aI2
aa(lp517
S'depressed'
p518
aI1
aa(lp519
S'fat'
p520
aI1
aa(lp521
S'tu'
p522
aI3
aa(lp523
S'veux'
p524
aI3
aa(lp525
S'parler'
p526
aI3
aa(lp527
S'en'
p528
aI3
aa(lp529
S'franais'
p530
aI7
aa(lp531
S'turn'
p532
aI2
aa(lp533
S'off'
p534
aI2
aa(lp535
S'lights'
p536
aI2
aa(lp537
S'wearing'
p538
aI2
aa(lp539
S'fleece'
p540
aI2
aa(lp541
S'has'
p542
aI1
aa(lp543
S'got'
p544
aI1
aa(lp545
S'or'
p546
aI1
aa(lp547
S'jadore'
p548
aI2
aa(lp549
S'time'
p550
aI1
aa(lp551
S'chatbot'
p552
aI1
aa(lp553
S'learns'
p554
aI1
aa(lp555
S'new'
p556
aI1
aa(lp557
S'words'
p558
aI1
aa(lp559
S'talking'
p560
aI2
aa(lp561
S'incoherently'
p562
aI1
aa(lp563
S'sup'
p564
aI1
aa(lp565
S'dude'
p566
aI1
aa(lp567
S'use'
p568
aI2
aa(lp569
S'slang'
p570
aI2
aa(lp571
S'parce'
p572
aI1
aa(lp573
S'que'
p574
aI1
aa(lp575
S'est'
p576
aI1
aa(lp577
S'beau'
p578
aI1
aa(lp579
S'te'
p580
aI2
aa(lp581
S'sil'
p582
aI1
aa(lp583
S'plat'
p584
aI1
aa(lp585
S'adores'
p586
aI1
aa(lp587
S'only'
p588
aI1
aa(lp589
S'if'
p590
aI1
aa(lp591
S'will'
p592
aI1
aa(lp593
S'cool'
p594
aI1
aa(lp595
S'viva'
p596
aI1
aa(lp597
S'la'
p598
aI1
aa(lp599
S'vida'
p600
aI1
aa(lp601
S'woop'
p602
aI2
aaa.