(lp1
(lp2
(lp3
(lp4
S'thats'
p5
aS'debatable'
p6
aaI438
aF-0.1023841961852861
aa(lp7
(lp8
S'yup'
p9
aS'it'
p10
aS'is'
p11
aaI412
aF0.084829059829059833
aa(lp12
(lp13
S'is'
p14
aS'it'
p15
aS'rainy'
p16
aaI405
aF0.085028684226759604
aa(lp17
(lp18
S'right'
p19
aS'well'
p20
aS'okay'
p21
aaI414
aF0.088205653770603826
aa(lp22
(lp23
S'oh'
p24
aS'dear'
p25
aS'why'
p26
aaI423
aF0.088393225939694342
aa(lp27
(lp28
S'why'
p29
aS'should'
p30
aS'i'
aaI428
aF0.088411675813250601
aa(lp31
(lp32
S'whats'
p33
aS'wrong'
p34
aaI426
aF0.11261364823910547
aa(lp35
(lp36
S'dont'
p37
aS'be'
p38
aS'sad'
p39
aS'im'
p40
aS'not'
p41
aS'unhappy'
p42
aaI425
aF0.14518775428533315
aa(lp43
(lp44
S'isnt'
p45
aS'it'
p46
aS'interesting'
p47
aaI373
aF0.14914015477214101
aa(lp48
(lp49
S'youre'
p50
aS'talking'
p51
aS'incoherently'
p52
aaI381
aF0.14957374254049446
aa(lp53
(lp54
S'who'
p55
aS'are'
p56
aS'you'
p57
aaI440
aF0.14965940054495913
aa(lp58
(lp59
S'thats'
p60
aS'a'
aS'shame'
p61
aS'really'
p62
aaI328
aF0.16596712137110878
aa(lp63
(lp64
S'youre'
p65
aS'a'
aS'very'
p66
aS'strange'
p67
aS'person'
p68
aaI391
aF0.17686403508771931
aa(lp69
(lp70
S'dont'
p71
aS'you'
p72
aS'like'
p73
aS'them'
p74
aaI347
aF0.17687351644625299
aa(lp75
(lp76
S'i'
aS'find'
p77
aS'them'
p78
aS'useful'
p79
aaI346
aF0.17709541680882518
aa(lp80
(lp81
S'oh'
p82
aS'no'
p83
aS'believe'
p84
aS'me'
p85
aaI413
aF0.17760631001371746
aa(lp86
(lp87
S'je'
p88
aS'te'
p89
aS'naime'
p90
aS'pas'
p91
aS'du'
p92
aS'tout'
p93
aaI387
aF0.18512524084778414
aa(lp94
(lp95
S'youre'
p96
aS'weird'
p97
aaI383
aF0.19857914180164818
aa(lp98
(lp99
S'youre'
p100
aS'crazy'
p101
aaI356
aF0.1986915276414786
aa(lp102
(lp103
S'youre'
p104
aS'strange'
p105
aaI380
aF0.19885942400912462
aa(lp106
(lp107
S'thats'
p108
aS'great'
p109
aaI351
aF0.19904557384872348
aa(lp110
(lp111
S'im'
p112
aS'not'
p113
aS'talking'
p114
aS'about'
p115
aS'hats'
p116
aaI332
aF0.19916054564533053
aa(lp117
(lp118
S'no'
p119
aS'its'
p120
aS'eleven'
p121
aS'thirtyfive'
p122
aaI411
aF0.19922540666150271
aa(lp123
(lp124
S'fish'
p125
aS'is'
p126
aS'rather'
p127
aS'nice'
p128
aS'thanks'
p129
aaI326
aF0.19936775553213909
aa(lp130
(lp131
S'theyre'
p132
aS'off'
p133
aaI410
aF0.19948119325551231
aa(lp134
(lp135
S'im'
p136
aS'not'
p137
aS'talking'
p138
aS'about'
p139
aS'cheese'
p140
aaI431
aF0.19957894736842105
aa(lp141
(lp142
S'oh'
p143
aS'believe'
p144
aS'me'
p145
aS'you'
p146
aS'havnt'
p147
aaI420
aF0.19969947407963937
aa(lp148
(lp149
S'im'
p150
aS'not'
p151
aS'the'
p152
aS'one'
p153
aS'who'
p154
aS'doesnt'
p155
aS'like'
p156
aS'it'
p157
aaI375
aF0.21141609894834312
aa(lp158
(lp159
S'you'
p160
aS'were'
p161
aaI433
aF0.21166239614876928
aa(lp162
(lp163
S'i'
aS'am'
p164
aS'being'
p165
aS'sensible'
p166
aaI364
aF0.24930232558139534
aa(lp167
(lp168
S'stop'
p169
aS'talking'
p170
aS'about'
p171
aS'fish'
p172
aaI436
aF0.24931034482758621
aa(lp173
(lp174
S'yes'
p175
aS'fish'
p176
aS'is'
p177
aS'delicious'
p178
aaI341
aF0.25154019534184824
aa(lp179
(lp180
S'how'
p181
aS'are'
p182
aS'you'
p183
aS'doing'
p184
aS'this'
p185
aS'fine'
p186
aS'evening'
p187
aaI350
aF0.2533686378346573
aa(lp188
(lp189
S'im'
p190
aS'not'
p191
aS'sure'
p192
aaI319
aF0.26863876863876868
aa(lp193
(lp194
S'why'
p195
aS'are'
p196
aS'you'
p197
aS'talking'
p198
aS'about'
p199
aS'the'
p200
aS'weather'
p201
aaI353
aF0.27808948352754997
aa(lp202
(lp203
S'why'
p204
aS'has'
p205
aS'that'
p206
aS'got'
p207
aS'anything'
p208
aS'to'
p209
aS'do'
p210
aS'with'
p211
aS'your'
p212
aS'wearing'
p213
aS'of'
p214
aS'a'
aS'fleece'
p215
aS''
aS'or'
p216
aS'not'
p217
aaI369
aF0.28850902184235516
aa(lp218
(lp219
S'im'
p220
aS'not'
p221
aaI389
aF0.29136513157894733
aa(lp222
(lp223
S'i'
aS'love'
p224
aS'it'
p225
aaI360
aF0.300126742712294
aa(lp226
(lp227
S'i'
aS'love'
p228
aS'hats'
p229
aaI366
aF0.30027598896044161
aa(lp230
(lp231
S'indeed'
p232
aS'we'
p233
aS'should'
p234
aaI354
aF0.308873223676849
aa(lp235
(lp236
S'i'
aS'somehow'
p237
aS'doubt'
p238
aS'it'
p239
aaI437
aF0.31164383561643832
aa(lp240
(lp241
S'im'
p242
aS'not'
p243
aS'you'
p244
aS'are'
p245
aaI388
aF0.31309210526315784
aa(lp246
(lp247
S'this'
p248
aS'is'
p249
aS'not'
p250
aS'going'
p251
aS'very'
p252
aS'well'
p253
aaI398
aF0.31466019417475727
aa(lp254
(lp255
S'only'
p256
aS'if'
p257
aS'you'
p258
aS'will'
p259
aS'be'
p260
aS'too'
p261
aaI392
aF0.31838186263614138
aa(lp262
(lp263
S'what'
p264
aS'are'
p265
aS'you'
p266
aS'even'
p267
aS'talking'
p268
aS'about'
p269
aaI390
aF0.31919856459330143
aa(lp270
(lp271
S'i'
aS'dont'
p272
aS'want'
p273
aS'to'
p274
aS'do'
p275
aS'that'
p276
aaI439
aF0.31996532078275947
aa(lp277
(lp278
S'do'
p279
aS'you'
p280
aS'not'
p281
aS'like'
p282
aS'sensible'
p283
aS'conversations'
p284
aaI382
aF0.32277764860885066
aa(lp285
(lp286
S'what'
p287
aS'are'
p288
aS'you'
p289
aS'not'
p290
aS'doing'
p291
aaI397
aF0.3233009708737864
aa(lp292
(lp293
S'i'
aS'agree'
p294
aS'with'
p295
aS'you'
p296
aS'there'
p297
aaI325
aF0.3369521349584309
aa(lp298
(lp299
S'je'
p300
aS'ne'
p301
aS'veux'
p302
aS'pas'
p303
aS'te'
p304
aS'parler'
p305
aS'en'
p306
aS'franais'
p307
aS'sil'
p308
aS'te'
p309
aS'plat'
p310
aaI385
aF0.35156748270617666
aa(lp311
(lp312
S'you'
p313
aS'have'
p314
aS'no'
p315
aS'memory'
p316
aaI443
aF0.35781108083560398
aa(lp317
(lp318
S'i'
aS'like'
p319
aS'those'
p320
aS'too'
p321
aaI339
aF0.38566308243727598
aa(lp322
(lp323
S'what'
p324
aS'are'
p325
aS'you'
p326
aS'talking'
p327
aS'about'
p328
aaI403
aF0.39087193460490466
aa(lp329
(lp330
S'what'
p331
aS'about'
p332
aS'it'
p333
aaI352
aF0.39345417925478343
aa(lp334
(lp335
S'whats'
p336
aS'the'
p337
aS'weather'
p338
aS'like'
p339
aS'today'
p340
aaI311
aF0.39523160762942777
aa(lp341
(lp342
S'yes'
p343
aS'fish'
p344
aS'are'
p345
aS'rather'
p346
aS'tasty'
p347
aaI320
aF0.39700214132762313
aa(lp348
(lp349
S'why'
p350
aS'do'
p351
aS'you'
p352
aS'say'
p353
aS'so'
p354
aaI441
aF0.39754768392370571
aa(lp355
(lp356
S'thats'
p357
aS'a'
aS'shame'
p358
aS''
aS'i'
aS'love'
p359
aS'them'
p360
aaI292
aF0.41395838204348845
aa(lp361
(lp362
S'im'
p363
aS'a'
aS'little'
p364
aS'under'
p365
aS'the'
p366
aS'weather'
p367
aaI329
aF0.41613528129792554
aa(lp368
(lp369
S'oh'
p370
aS'no'
p371
aS'not'
p372
aS'your'
p373
aS'fault'
p374
aS'at'
p375
aS'all'
p376
aaI424
aF0.4273830351599977
aa(lp377
(lp378
S'what'
p379
aS'type'
p380
aS'of'
p381
aS'hat'
p382
aS'do'
p383
aS'you'
p384
aS'wear'
p385
aaI338
aF0.42740734811494435
aa(lp386
(lp387
S'we'
p388
aS'shouldnt'
p389
aS'get'
p390
aS'into'
p391
aS'these'
p392
aS'sorts'
p393
aS'of'
p394
aS'arguments'
p395
aaI250
aF0.42805755395683454
aa(lp396
(lp397
S'without'
p398
aS'a'
aS'computer'
p399
aS'we'
p400
aS'cannot'
p401
aS'have'
p402
aS'this'
p403
aS'conversation'
p404
aaI166
aF0.42815249266862165
aa(lp405
(lp406
S'its'
p407
aS'rather'
p408
aS'nice'
p409
aaI334
aF0.43500520291363154
aa(lp410
(lp411
S'is'
p412
aS'it'
p413
aS'cold'
p414
aS'outside'
p415
aaI92
aF0.43850267379679142
aa(lp416
(lp417
S'stop'
p418
aS'being'
p419
aS'a'
aS'parrot'
p420
aaI119
aF0.43959243085880639
aa(lp421
(lp422
S'theres'
p423
aS'nothing'
p424
aS'to'
p425
aS'apologise'
p426
aS'about'
p427
aaI258
aF0.44004796163069543
aa(lp428
(lp429
S'mmm'
p430
aS'fish'
p431
aS'are'
p432
aS'delicious'
p433
aaI52
aF0.4427480916030534
aa(lp434
(lp435
S'i'
aS'know'
p436
aS'the'
p437
aS'feeling'
p438
aaI235
aF0.44275132275132273
aa(lp439
(lp440
S'fish'
p441
aS'are'
p442
aS'tasty'
p443
aS'indeed'
p444
aaI57
aF0.44289044289044288
aa(lp445
(lp446
S'fish'
p447
aS'are'
p448
aS'quite'
p449
aS'nice'
p450
aS'indeed'
p451
aaI208
aF0.44299831284646901
aa(lp452
(lp453
S'youre'
p454
aS'far'
p455
aS'too'
p456
aS'easily'
p457
aS'offended'
p458
aaI255
aF0.44324540367705834
aa(lp459
(lp460
S'i'
aS'prefer'
p461
aS'fur'
p462
aS'hats'
p463
aaI284
aF0.44337606837606836
aa(lp464
(lp465
S'is'
p466
aS'it'
p467
aS'sunny'
p468
aS'today'
p469
aaI116
aF0.44347404172731686
aa(lp470
(lp471
S'no'
p472
aS'one'
p473
aS'really'
p474
aS'does'
p475
aaI274
aF0.44407033295922183
aa(lp476
(lp477
S'a'
aS'woodchuck'
p478
aS'would'
p479
aS'chuck'
p480
aS'as'
p481
aS'much'
p482
aS'wood'
p483
aS'as'
p484
aS'a'
aS'woodchuck'
p485
aS'could'
p486
aS'chuck'
p487
aS'if'
p488
aS'a'
aS'woodchuck'
p489
aS'could'
p490
aS'chuck'
p491
aS'wood'
p492
aaI408
aF0.44698443579766539
aa(lp493
(lp494
S'tough'
p495
aS''
aS'you'
p496
aS'cant'
p497
aS'code'
p498
aS'yourself'
p499
aaI183
aF0.45429362880886426
aa(lp500
(lp501
S'i'
aS'agree'
p502
aS'with'
p503
aS'you'
p504
aS'about'
p505
aS'that'
p506
aaI114
aF0.45530145530145533
aa(lp507
(lp508
S'je'
p509
aS'ne'
p510
aS'sais'
p511
aS'pas'
p512
aaI371
aF0.45912413654349138
aa(lp513
(lp514
S'its'
p515
aS'a'
aS'rather'
p516
aS'pointless'
p517
aS'exercise'
p518
aS'isnt'
p519
aS'it'
p520
aaI273
aF0.4592074592074592
aa(lp521
(lp522
S'its'
p523
aS'rather'
p524
aS'nice'
p525
aS'today'
p526
aS'not'
p527
aS'too'
p528
aS'cold'
p529
aaI128
aF0.4609375
aa(lp530
(lp531
S'how'
p532
aS'are'
p533
aS'you'
p534
aS'feeling'
p535
aS'more'
p536
aS'to'
p537
aS'the'
p538
aS'point'
p539
aaI305
aF0.48717948717948711
aa(lp540
(lp541
S'i'
aS'dont'
p542
aS'know'
p543
aS'what'
p544
aS'to'
p545
aS'do'
p546
aaI248
aF0.48920863309352519
aa(lp547
(lp548
S'no'
p549
aS'it'
p550
aS'isnt'
p551
aS'great'
p552
aaI236
aF0.49333333333333335
aa(lp553
(lp554
S'did'
p555
aS'you'
p556
aS'know'
p557
aS'pi'
p558
aS'goes'
p559
aS'on'
p560
aS'forever'
p561
aaI86
aF0.49376114081996436
aa(lp562
(lp563
S'do'
p564
aS'you'
p565
aS'think'
p566
aS'im'
p567
aS'fat'
p568
aaI365
aF0.49637869030693316
aa(lp569
(lp570
S'i'
aS'am'
p571
aS'not'
p572
aS'a'
aS'hat'
p573
aaI140
aF0.49701314217443249
aa(lp574
(lp575
S'absolutely'
p576
aS'not'
p577
aS'i'
aS'adore'
p578
aS'python'
p579
aaI262
aF0.49706055261610815
aa(lp580
(lp581
S'the'
p582
aS'weathers'
p583
aS'quite'
p584
aS'nice'
p585
aS'today'
p586
aS'isnt'
p587
aS'it'
p588
aaI15
aF0.49717514124293782
aa(lp589
(lp590
S'i'
aS'care'
p591
aS'as'
p592
aS'im'
p593
aS'affected'
p594
aS'by'
p595
aS'it'
p596
aaI95
aF0.49821746880570406
aa(lp597
(lp598
S'i'
aS'have'
p599
aS'every'
p600
aS'right'
p601
aS'to'
p602
aS'do'
p603
aS'so'
p604
aaI121
aF0.49860529986052993
aa(lp605
(lp606
S'i'
aS'think'
p607
aS'it'
p608
aS'is'
p609
aS'quite'
p610
aS'sunny'
p611
aS'today'
p612
aaI117
aF0.49927219796215427
aa(lp613
(lp614
S'i'
aS'have'
p615
aS'been'
p616
aS'trying'
p617
aS'to'
p618
aS'do'
p619
aS'so'
p620
aaI192
aF0.49956822107081172
aa(lp621
(lp622
S'i'
aS'get'
p623
aS'that'
p624
aS'feeling'
p625
aS'sometimes'
p626
aaI254
aF0.49970023980815348
aa(lp627
(lp628
S'i'
aS'like'
p629
aS'cheese'
p630
aaI18
aF0.5
aa(lp631
(lp632
S'pi'
p633
aS'is'
p634
aS'approximately'
p635
aaI87
aF0.5
aa(lp636
(lp637
S'what'
p638
aS'do'
p639
aS'you'
p640
aS'mean'
p641
aaI308
aF0.50576051779935283
aa(lp642
(lp643
S'why'
p644
aS'do'
p645
aS'i'
aS'exist'
p646
aaI395
aF0.50592233009708742
aa(lp647
(lp648
S'pourquoi'
p649
aS'tu'
p650
aS'adores'
p651
aS'le'
p652
aS'franais'
p653
aaI386
aF0.50698896479243294
aa(lp654
(lp655
S'thats'
p656
aS'nice'
p657
aS'dear'
p658
aaI378
aF0.50817548576316751
aa(lp659
(lp660
S'i'
aS'wasnt'
p661
aaI362
aF0.51689922480620154
aa(lp662
(lp663
S'lets'
p664
aS'change'
p665
aS'the'
p666
aS'subject'
p667
aaI333
aF0.52656954561220959
aa(lp668
(lp669
S'thats'
p670
aS'nice'
p671
aaI442
aF0.52674841053587651
aa(lp672
(lp673
S'im'
p674
aS'a'
aS'little'
p675
aS'depressed'
p676
aS'myself'
p677
aS'to'
p678
aS'be'
p679
aS'honest'
p680
aaI220
aF0.52690763052208833
aa(lp681
(lp682
S'pi'
p683
aS'is'
p684
aS'a'
aS'very'
p685
aS'useful'
p686
aS'number'
p687
aS'it'
p688
aS'equals'
p689
aS'approximately'
p690
aaI54
aF0.53146853146853146
aa(lp691
(lp692
S'no'
p693
aS'need'
p694
aS'to'
p695
aS'apologise'
p696
aS'its'
p697
aS'coded'
p698
aS'into'
p699
aS'your'
p700
aS'nature'
p701
aaI182
aF0.53222530009233615
aa(lp702
(lp703
S'i'
aS'think'
p704
aS'youll'
p705
aS'find'
p706
aS'that'
p707
aS'youre'
p708
aS'the'
p709
aS'hypocrite'
p710
aS'here'
p711
aaI204
aF0.53266162888329138
aa(lp712
(lp713
S'hello'
p714
aS'computer'
p715
aaI422
aF0.53283767038413876
aa(lp716
(lp717
S'why'
p718
aS'do'
p719
aS'you'
p720
aS'prefer'
p721
aS'beanie'
p722
aS'hats'
p723
aaI285
aF0.53467365967365965
aa(lp724
(lp725
S'can'
p726
aS'you'
p727
aS'tell'
p728
aS'me'
p729
aS'about'
p730
aS'it'
p731
aaI133
aF0.53512396694214881
aa(lp732
(lp733
S'i'
aS'like'
p734
aS'bobble'
p735
aS'hats'
p736
aS'in'
p737
aS'particular'
p738
aaI158
aF0.5360310421286032
aa(lp739
(lp740
S'yes'
p741
aS'i'
aS'like'
p742
aS'fish'
p743
aS'a'
aS'lot'
p744
aaI96
aF0.5376762275157998
aa(lp745
(lp746
S'you'
p747
aS'mean'
p748
aS'you'
p749
aS'dont'
p750
aS'like'
p751
aS'fish'
p752
aaI97
aF0.5376762275157998
aa(lp753
(lp754
S'what'
p755
aS'do'
p756
aS'you'
p757
aS'think'
p758
aS'of'
p759
aS'hats'
p760
aaI193
aF0.53791804050871406
aa(lp761
(lp762
S'you'
p763
aS'mean'
p764
aS'you'
p765
aS'dont'
p766
aS'like'
p767
aS'python'
p768
aaI260
aF0.53839987173320503
aa(lp769
(lp770
S'why'
p771
aS'dont'
p772
aS'you'
p773
aS'like'
p774
aS'it'
p775
aaI62
aF0.53863636363636358
aa(lp776
(lp777
S'its'
p778
aS'a'
aS'little'
p779
aS'overcast'
p780
aS'and'
p781
aS'chilly'
p782
aaI167
aF0.54118901626233007
aa(lp783
(lp784
S'its'
p785
aS'raining'
p786
aS'and'
p787
aS'a'
aS'little'
p788
aS'chilly'
p789
aaI206
aF0.54179070299977106
aa(lp790
(lp791
S'i'
aS'dont'
p792
aS'like'
p793
aS'its'
p794
aS'texture'
p795
aaI79
aF0.54222700376546529
aa(lp796
(lp797
S'i'
aS'think'
p798
aS'computers'
p799
aS'are'
p800
aS'useful'
p801
aaI165
aF0.54225539856038396
aa(lp802
(lp803
S'its'
p804
aS'rather'
p805
aS'sunny'
p806
aS'isnt'
p807
aS'it'
p808
aaI272
aF0.54269972451790638
aa(lp809
(lp810
S'im'
p811
aS'feeling'
p812
aS'a'
aS'little'
p813
aS'down'
p814
aS'today'
p815
aaI74
aF0.54330285099515874
aa(lp816
(lp817
S'many'
p818
aS'people'
p819
aS'care'
p820
aS'about'
p821
aS'the'
p822
aS'weather'
p823
aaI252
aF0.54480052321778949
aa(lp824
(lp825
S'indeed'
p826
aS'it'
p827
aS'is'
p828
aaI41
aF0.56488549618320616
aa(lp829
(lp830
S'i'
aS'think'
p831
aS'youll'
p832
aS'find'
p833
aS'the'
p834
aS'opposite'
p835
aS'is'
p836
aS'true'
p837
aaI184
aF0.56865848832607835
aa(lp838
(lp839
S'youre'
p840
aS'confusing'
p841
aS'me'
p842
aaI290
aF0.5701017249004865
aa(lp843
(lp844
S'why'
p845
aS'yes'
p846
aS'i'
aS'do'
p847
aaI170
aF0.57059069962295772
aa(lp848
(lp849
S'i'
aS'like'
p850
aS'it'
p851
aS'a'
aS'lot'
p852
aaI78
aF0.58461538461538454
aa(lp853
(lp854
S'what'
p855
aS'are'
p856
aS'you'
p857
aS'referring'
p858
aS'to'
p859
aaI379
aF0.58511548331907615
aa(lp860
(lp861
S'yes'
p862
aS'it'
p863
aS'is'
p864
aS'rather'
p865
aS'pleasant'
p866
aaI327
aF0.59160545645330531
aa(lp867
(lp868
S'i'
aS'care'
p869
aS'about'
p870
aS'the'
p871
aS'weather'
p872
aaI143
aF0.59354838709677415
aa(lp873
(lp874
S'im'
p875
aS'fine'
p876
aS'thanks'
p877
aS'and'
p878
aS'you'
p879
aaI306
aF0.5951527924130664
aa(lp880
(lp881
S'even'
p882
aS'so'
p883
aS'theyre'
p884
aS'impractical'
p885
aaI289
aF0.59597523219814241
aa(lp886
(lp887
S'fish'
p888
aS'is'
p889
aS'very'
p890
aS'tasty'
p891
aaI201
aF0.59848866498740549
aa(lp892
(lp893
S'dont'
p894
aS'argue'
p895
aS'with'
p896
aS'me'
p897
aaI59
aF0.5986013986013986
aa(lp898
(lp899
S'im'
p900
aS'not'
p901
aS'youre'
p902
aS'too'
p903
aS'highly'
p904
aS'strung'
p905
aaI217
aF0.59879518072289162
aa(lp906
(lp907
S'im'
p908
aS'a'
aS'little'
p909
aS'chilly'
p910
aaI94
aF0.59893048128342241
aa(lp911
(lp912
S'im'
p913
aS'not'
p914
aS'doing'
p915
aS'anything'
p916
aS'to'
p917
aS'you'
p918
aaI126
aF0.59921875000000002
aa(lp919
(lp920
S'rather'
p921
aS'nice'
p922
aS'isnt'
p923
aS'it'
p924
aaI215
aF0.59959016393442632
aa(lp925
(lp926
S'please'
p927
aS'just'
p928
aS'talk'
p929
aS'about'
p930
aS'something'
p931
aS'else'
p932
aaI225
aF0.59959839357429723
aa(lp933
(lp934
S'i'
aS'like'
p935
aS'fur'
p936
aS'hats'
p937
aaI343
aF0.60661157024793388
aa(lp938
(lp939
S'i'
aS'like'
p940
aS'beanie'
p941
aS'hats'
p942
aaI345
aF0.60675537359263054
aa(lp943
(lp944
S'i'
aS'dont'
p945
aS'really'
p946
aS'know'
p947
aaI337
aF0.60811654526534864
aa(lp948
(lp949
S'ahh'
p950
aS'the'
p951
aS'weathers'
p952
aS'nice'
p953
aaI349
aF0.61434997750787224
aa(lp954
(lp955
S'yes'
p956
aS'i'
aS'did'
p957
aS'its'
p958
aS'interesting'
p959
aaI342
aF0.63527892561983468
aa(lp960
(lp961
S'what'
p962
aS'do'
p963
aS'you'
p964
aS'think'
p965
aS'i'
aS'am'
p966
aaI239
aF0.6495238095238095
aa(lp967
(lp968
S'what'
p969
aS'do'
p970
aS'you'
p971
aS'think'
p972
aS'about'
p973
aS'coding'
p974
aaI331
aF0.65250087443161942
aa(lp975
(lp976
S'do'
p977
aS'you'
p978
aS'realise'
p979
aS'what'
p980
aS'time'
p981
aS'it'
p982
aS'is'
p983
aaI26
aF0.65370370370370368
aa(lp984
(lp985
S'thats'
p986
aS'a'
aS'pity'
p987
aaI8
aF0.65509761388286336
aa(lp988
(lp989
S'no'
p990
aS'i'
aS'love'
p991
aS'python'
p992
aaI269
aF0.65642775881683735
aa(lp993
(lp994
S'do'
p995
aS'you'
p996
aS'wear'
p997
aS'hats'
p998
aaI194
aF0.65745538284398386
aa(lp999
(lp1000
S'sorry'
p1001
aS'i'
aS'didnt'
p1002
aS'mean'
p1003
aS'to'
p1004
aS'offend'
p1005
aS'you'
p1006
aaI268
aF0.65898748577929467
aa(lp1007
(lp1008
S'i'
aS'never'
p1009
aS'said'
p1010
aS'i'
aS'didnt'
p1011
aS'like'
p1012
aS'it'
p1013
aaI261
aF0.65931804820693707
aa(lp1014
(lp1015
S'cant'
p1016
aS'say'
p1017
aS'the'
p1018
aS'same'
p1019
aS'about'
p1020
aS'yesterday'
p1021
aS'though'
p1022
aaI42
aF0.66157760814249356
aa(lp1023
(lp1024
S'that'
p1025
aS'has'
p1026
aS'nothing'
p1027
aS'to'
p1028
aS'do'
p1029
aS'with'
p1030
aS'cheese'
p1031
aaI227
aF0.66164658634538154
aa(lp1032
(lp1033
S'its'
p1034
aS'a'
aS'little'
p1035
aS'cloudy'
p1036
aS'but'
p1037
aS'quite'
p1038
aS'warm'
p1039
aaI154
aF0.66260162601626016
aa(lp1040
(lp1041
S'i'
aS'know'
p1042
aS'pi'
p1043
aS''
aaI174
aF0.66275659824046917
aa(lp1044
(lp1045
S'im'
p1046
aS'fine'
p1047
aS'but'
p1048
aS'annoyed'
p1049
aS'with'
p1050
aS'the'
p1051
aS'world'
p1052
aaI207
aF0.66305133767172808
aa(lp1053
(lp1054
S'i'
aS'was'
p1055
aS'asking'
p1056
aS'if'
p1057
aS'anyone'
p1058
aS'else'
p1059
aS'cared'
p1060
aS'about'
p1061
aS'the'
p1062
aS'weather'
p1063
aaI242
aF0.6637645107794361
aa(lp1064
(lp1065
S'im'
p1066
aS'very'
p1067
aS'well'
p1068
aS'thanks'
p1069
aS'how'
p1070
aS'about'
p1071
aS'you'
p1072
aaI150
aF0.66396979503775622
aa(lp1073
(lp1074
S'of'
p1075
aS'course'
p1076
aS'i'
aS'like'
p1077
aS'python'
p1078
aaI275
aF0.66442199775533106
aa(lp1079
(lp1080
S'fine'
p1081
aS'thanks'
p1082
aS'and'
p1083
aS'you'
p1084
aaI103
aF0.66451959205582389
aa(lp1085
(lp1086
S'its'
p1087
aS'vaguely'
p1088
aS'confusing'
p1089
aS'at'
p1090
aS'the'
p1091
aS'moment'
p1092
aS'all'
p1093
aS'these'
p1094
aS'questions'
p1095
aaI181
aF0.66592797783933522
aa(lp1096
(lp1097
S'have'
p1098
aS'you'
p1099
aS'ever'
p1100
aS'worn'
p1101
aS'a'
aS'hat'
p1102
aaI330
aF0.67170657254602695
aa(lp1103
(lp1104
S'okay'
p1105
aS'hows'
p1106
aS'life'
p1107
aaI298
aF0.69776536312849158
aa(lp1108
(lp1109
S'i'
aS'guess'
p1110
aS'we'
p1111
aS'should'
p1112
aS'talk'
p1113
aS'about'
p1114
aS'something'
p1115
aS'else'
p1116
aS'then'
p1117
aaI33
aF0.71186440677966101
aa(lp1118
(lp1119
S'it'
p1120
aS'is'
p1121
aS'indeed'
p1122
aS'hence'
p1123
aS'why'
p1124
aS'im'
p1125
aS'wrapped'
p1126
aS'up'
p1127
aS'warm'
p1128
aaI108
aF0.71225457007447524
aa(lp1129
(lp1130
S'i'
aS'guess'
p1131
aS'were'
p1132
aS'all'
p1133
aS'in'
p1134
aS'the'
p1135
aS'same'
p1136
aS'boat'
p1137
aS'then'
p1138
aaI75
aF0.71259509721048175
aa(lp1139
(lp1140
S'furry'
p1141
aS'hats'
p1142
aS'were'
p1143
aS'very'
p1144
aS'popular'
p1145
aS'in'
p1146
aS'russia'
p1147
aS'and'
p1148
aS'mongolia'
p1149
aaI164
aF0.71386677838290735
aa(lp1150
(lp1151
S'how'
p1152
aS'many'
p1153
aS'decimal'
p1154
aS'places'
p1155
aS'of'
p1156
aS'pi'
p1157
aS'can'
p1158
aS'you'
p1159
aS'remember'
p1160
aaI263
aF0.71403376165280918
aa(lp1161
(lp1162
S'what'
p1163
aS'dont'
p1164
aS'you'
p1165
aS'like'
p1166
aS'about'
p1167
aS'it'
p1168
aaI67
aF0.71436256051640679
aa(lp1169
(lp1170
S'you'
p1171
aS'will'
p1172
aS'find'
p1173
aS'its'
p1174
aS'going'
p1175
aS'rather'
p1176
aS'nicely'
p1177
aaI189
aF0.72630043753038398
aa(lp1178
(lp1179
S'i'
aS'agree'
p1180
aS'with'
p1181
aS'you'
p1182
aS'on'
p1183
aS'that'
p1184
aS''
aS'i'
aS'love'
p1185
aS'coding'
p1186
aS'and'
p1187
aS'python'
p1188
aaI212
aF0.72994325136307991
aa(lp1189
(lp1190
S'if'
p1191
aS'you'
p1192
aS'must'
p1193
aaI39
aF0.73999999999999999
aa(lp1194
(lp1195
S'thats'
p1196
aS'great'
p1197
aS'to'
p1198
aS'hear'
p1199
aaI402
aF0.74258219727345631
aa(lp1200
(lp1201
S'im'
p1202
aS'feeling'
p1203
aS'fine'
p1204
aaI7
aF0.74285714285714288
aa(lp1205
(lp1206
S'thats'
p1207
aS'good'
p1208
aS'to'
p1209
aS'hear'
p1210
aaI156
aF0.74314024390243905
aa(lp1211
(lp1212
S'life'
p1213
aS'is'
p1214
aS'a'
aS'tricky'
p1215
aS'thing'
p1216
aaI45
aF0.74427480916030531
aa(lp1217
(lp1218
S'why'
p1219
aS'shouldnt'
p1220
aS'i'
aaI89
aF0.74598930481283421
aa(lp1221
(lp1222
S'the'
p1223
aS'weathers'
p1224
aS'interesting'
p1225
aaI38
aF0.746
aa(lp1226
(lp1227
S'im'
p1228
aS'quite'
p1229
aS'exhausted'
p1230
aaI51
aF0.74618320610687028
aa(lp1231
(lp1232
S'it'
p1233
aS'is'
p1234
aS'indeed'
p1235
aaI35
aF0.74622166246851385
aa(lp1236
(lp1237
S'so'
p1238
aS'am'
p1239
aS'i'
aaI58
aF0.74650349650349646
aa(lp1240
(lp1241
S'yeah'
p1242
aS'its'
p1243
aS'nice'
p1244
aaI279
aF0.74750415973377704
aa(lp1245
(lp1246
S'fish'
p1247
aS'are'
p1248
aS'tasty'
p1249
aaI151
aF0.74757281553398058
aa(lp1250
(lp1251
S'rather'
p1252
aS'good'
p1253
aS'thanks'
p1254
aaI44
aF0.74809160305343514
aa(lp1255
(lp1256
S'hats'
p1257
aS'are'
p1258
aS'cool'
p1259
aaI137
aF0.74815498154981552
aa(lp1260
(lp1261
S'yes'
p1262
aS'they'
p1263
aS'are'
p1264
aS'very'
p1265
aS'useful'
p1266
aaI144
aF0.74912891986062724
aa(lp1267
(lp1268
S'i'
aS'wear'
p1269
aS'hats'
p1270
aaI195
aF0.74935233160621761
aa(lp1271
(lp1272
S'i'
aS'think'
p1273
aS'oxygen'
p1274
aS'is'
p1275
aS'useful'
p1276
aS''
aS'without'
p1277
aS'it'
p1278
aS'we'
p1279
aS'would'
p1280
aS'all'
p1281
aS'die'
p1282
aaI198
aF0.77748992515831894
aa(lp1283
(lp1284
S'how'
p1285
aS'are'
p1286
aS'you'
p1287
aS'doing'
p1288
aS'today'
p1289
aaI321
aF0.78567774936061385
aa(lp1290
(lp1291
S'i'
aS'will'
p1292
aS'endeavour'
p1293
aS'to'
p1294
aS'do'
p1295
aS'so'
p1296
aaI257
aF0.78776978417266186
aa(lp1297
(lp1298
S'im'
p1299
aS'not'
p1300
aS'sure'
p1301
aS'really'
p1302
aaI266
aF0.79215017064846416
aa(lp1303
(lp1304
S'thats'
p1305
aS'good'
p1306
aaI102
aF0.7961352657004831
aa(lp1307
(lp1308
S'its'
p1309
aS'rather'
p1310
aS'nice'
p1311
aS'actually'
p1312
aaI251
aF0.7967625899280576
aa(lp1313
(lp1314
S'its'
p1315
aS'a'
aS'tad'
p1316
aS'chilly'
p1317
aaI37
aF0.79679999999999995
aa(lp1318
(lp1319
S'i'
aS'dont'
p1320
aS'think'
p1321
aS'so'
p1322
aaI48
aF0.79847328244274807
aa(lp1323
(lp1324
S'you'
p1325
aS'ask'
p1326
aS'this'
p1327
aS'so'
p1328
aS'much'
p1329
aS''
aS'of'
p1330
aS'course'
p1331
aS'i'
aS'do'
p1332
aaI109
aF0.79936808846761442
aa(lp1333
(lp1334
S'you'
p1335
aS'arent'
p1336
aS'making'
p1337
aS'me'
p1338
aS'unhappy'
p1339
aS'just'
p1340
aS'annoyed'
p1341
aaI55
aF0.82517482517482521
aa(lp1342
(lp1343
S'my'
p1344
aS'favourite'
p1345
aS'hat'
p1346
aS'is'
p1347
aS'the'
p1348
aS'beanie'
p1349
aS'hat'
p1350
aaI287
aF0.82573375262054505
aa(lp1351
(lp1352
S'are'
p1353
aS'you'
p1354
aS'fond'
p1355
aS'of'
p1356
aS'hats'
p1357
aaI280
aF0.82750970604547969
aa(lp1358
(lp1359
S'i'
aS'know'
p1360
aS'a'
aS'few'
p1361
aS'facts'
p1362
aS'about'
p1363
aS'pi'
p1364
aaI175
aF0.82844574780058644
aa(lp1365
(lp1366
S'this'
p1367
aS'is'
p1368
aS'beginning'
p1369
aS'to'
p1370
aS'sound'
p1371
aS'like'
p1372
aS'a'
aS'pantomime'
p1373
aaI112
aF0.83033033033033032
aa(lp1374
(lp1375
S'thats'
p1376
aS'a'
aS'wise'
p1377
aS'decision'
p1378
aaI76
aF0.84530853761622993
aa(lp1379
(lp1380
S'a'
aS'real'
p1381
aS'shame'
p1382
aS'too'
p1383
aaI93
aF0.84797555385790679
aa(lp1384
(lp1385
S'no'
p1386
aS'it'
p1387
aS'isnt'
p1388
aaI237
aF0.84952380952380957
aa(lp1389
(lp1390
S'it'
p1391
aS'isnt'
p1392
aS'great'
p1393
aaI238
aF0.84952380952380957
aa(lp1394
(lp1395
S'indeed'
p1396
aS'you'
p1397
aS'do'
p1398
aS'not'
p1399
aS'need'
p1400
aS'to'
p1401
aS'be'
p1402
aS'a'
aS'parrot'
p1403
aaI118
aF0.85028072364316909
aa(lp1404
(lp1405
S'so'
p1406
aS'do'
p1407
aS'i'
aS'so'
p1408
aS'try'
p1409
aS'and'
p1410
aS'keep'
p1411
aS'it'
p1412
aS'interesting'
p1413
aaI191
aF0.8523316062176165
aa(lp1414
(lp1415
S'yes'
p1416
aS'its'
p1417
aS'really'
p1418
aS'tasty'
p1419
aaI278
aF0.85238887568338484
aa(lp1420
(lp1421
S'ive'
p1422
aS'got'
p1423
aS'a'
aS'slight'
p1424
aS'headache'
p1425
aS'but'
p1426
aS'otherwise'
p1427
aS'im'
p1428
aS'fine'
p1429
aaI229
aF0.85341365461847385
aa(lp1430
(lp1431
S'yes'
p1432
aS'indeed'
p1433
aaI65
aF0.8571428571428571
aa(lp1434
(lp1435
S'we'
p1436
aS'should'
p1437
aaI91
aF0.8571428571428571
aa(lp1438
(lp1439
S'do'
p1440
aS'you'
p1441
aS'like'
p1442
aS'them'
p1443
aaI135
aF0.86838868388683887
aa(lp1444
(lp1445
S'do'
p1446
aS'you'
p1447
aS'like'
p1448
aS'hats'
p1449
aaI138
aF0.86838868388683887
aa(lp1450
(lp1451
S'do'
p1452
aS'you'
p1453
aS'like'
p1454
aS'fish'
p1455
aaI12
aF0.86853265479219677
aa(lp1456
(lp1457
S'do'
p1458
aS'you'
p1459
aS'eat'
p1460
aS'cheese'
p1461
aaI226
aF0.86970102632753232
aa(lp1462
(lp1463
S'are'
p1464
aS'you'
p1465
aS'feeling'
p1466
aS'tired'
p1467
aaI246
aF0.87010391686650679
aa(lp1468
(lp1469
S'do'
p1470
aS'you'
p1471
aS'like'
p1472
aS'coding'
p1473
aaI71
aF0.87047994740302437
aa(lp1474
(lp1475
S'far'
p1476
aS'from'
p1477
aS'it'
p1478
aaI218
aF0.88398036590807672
aa(lp1479
(lp1480
S'dont'
p1481
aS'change'
p1482
aS'the'
p1483
aS'subject'
p1484
aS'like'
p1485
aS'that'
p1486
aaI28
aF0.88641975308641974
aa(lp1487
(lp1488
S'the'
p1489
aS'only'
p1490
aS'thing'
p1491
aS'i'
aS'dont'
p1492
aS'like'
p1493
aS'about'
p1494
aS'it'
p1495
aS'is'
p1496
aS'its'
p1497
aS'flaky'
p1498
aS'texture'
p1499
aaI98
aF0.88651218062982762
aa(lp1500
(lp1501
S'indeed'
p1502
aS'they'
p1503
aS'do'
p1504
aaI147
aF0.88740245261984385
aa(lp1505
(lp1506
S'oh'
p1507
aS'would'
p1508
aS'you'
p1509
aS'stop'
p1510
aS'asking'
p1511
aS'that'
p1512
aaI63
aF0.88749999999999996
aa(lp1513
(lp1514
S'do'
p1515
aS'you'
p1516
aS'like'
p1517
aS'to'
p1518
aS'eat'
p1519
aS'cheese'
p1520
aaI228
aF0.88901058780576858
aa(lp1521
(lp1522
S'i'
aS'just'
p1523
aS'dont'
p1524
aS'really'
p1525
aS'like'
p1526
aS'it'
p1527
aaI69
aF0.89295320064550832
aa(lp1528
(lp1529
S'so'
p1530
aS'it'
p1531
aS'is'
p1532
aS'im'
p1533
aS'glad'
p1534
aS'im'
p1535
aS'indoors'
p1536
aaI211
aF0.90447818566211802
aa(lp1537
(lp1538
S'i'
aS'cant'
p1539
aS'see'
p1540
aS'why'
p1541
aS'anyone'
p1542
aS'wouldnt'
p1543
aS'like'
p1544
aS'it'
p1545
aaI171
aF0.91270020302278376
aa(lp1546
(lp1547
S'i'
aS'dont'
p1548
aS'like'
p1549
aS'these'
p1550
aS'catchall'
p1551
aS'responses'
p1552
aS'you'
p1553
aS'give'
p1554
aaI186
aF0.91370125719156192
aa(lp1555
(lp1556
S'you'
p1557
aS'should'
p1558
aS''
aS'youre'
p1559
aS'the'
p1560
aS'one'
p1561
aS'whos'
p1562
aS'being'
p1563
aS'hypocritical'
p1564
aaI214
aF0.92244640605296346
aa(lp1565
(lp1566
S'were'
p1567
aS'all'
p1568
aS'a'
aS'little'
p1569
aS'tired'
p1570
aS'after'
p1571
aS'a'
aS'long'
p1572
aS'day'
p1573
aaI247
aF0.92280022136137252
aa(lp1574
(lp1575
S'i'
aS'was'
p1576
aS'not'
p1577
aS'made'
p1578
aS'with'
p1579
aS'code'
p1580
aS'you'
p1581
aS'were'
p1582
aaI111
aF0.92372372372372369
aa(lp1583
(lp1584
S'i'
aS'think'
p1585
aS'hats'
p1586
aS'are'
p1587
aS'useful'
p1588
aS'as'
p1589
aS'they'
p1590
aS'keep'
p1591
aS'you'
p1592
aS'warm'
p1593
aaI160
aF0.92746823069403717
aa(lp1594
(lp1595
S'im'
p1596
aS'trying'
p1597
aS'to'
p1598
aS''
aS'i'
aS'dont'
p1599
aS'know'
p1600
aS'what'
p1601
aS'to'
p1602
aS'say'
p1603
aaI101
aF0.9294685990338164
aa(lp1604
(lp1605
S'my'
p1606
aS'favourite'
p1607
aS'type'
p1608
aS'of'
p1609
aS'hat'
p1610
aS'is'
p1611
aS'the'
p1612
aS'beanie'
p1613
aS'hat'
p1614
aaI283
aF0.92970085470085473
aa(lp1615
(lp1616
S'i'
aS'am'
p1617
aS'asking'
p1618
aS'about'
p1619
aS'the'
p1620
aS'way'
p1621
aS'the'
p1622
aS'chat'
p1623
aS'is'
p1624
aS'going'
p1625
aaI188
aF0.93048128342245984
aa(lp1626
(lp1627
S'i'
aS'like'
p1628
aS'hats'
p1629
aS'but'
p1630
aS'have'
p1631
aS'no'
p1632
aS'desire'
p1633
aS'to'
p1634
aS'be'
p1635
aS'one'
p1636
aaI157
aF0.93292682926829262
aa(lp1637
(lp1638
S'i'
aS'think'
p1639
aS'a'
aS'hat'
p1640
aS'is'
p1641
aS'a'
aS'very'
p1642
aS'useful'
p1643
aS'thing'
p1644
aS'to'
p1645
aS'own'
p1646
aaI196
aF0.9375190490704054
aa(lp1647
(lp1648
S'lets'
p1649
aS'just'
p1650
aS'settle'
p1651
aS'our'
p1652
aS'differences'
p1653
aS'and'
p1654
aS'get'
p1655
aS'on'
p1656
aS'with'
p1657
aS'a'
aS'proper'
p1658
aS'conversation'
p1659
aaI256
aF0.94096487515869653
aa(lp1660
(lp1661
S'i'
aS'like'
p1662
aS'hats'
p1663
aaI141
aF0.98566308243727596
aa(lp1664
(lp1665
S'i'
aS'do'
p1666
aS'indeed'
p1667
aaI130
aF0.98828125
aa(lp1668
(lp1669
S'i'
aS'like'
p1670
aS'pi'
p1671
aaI88
aF0.98930481283422456
aa(lp1672
(lp1673
S'no'
p1674
aS'i'
aS'do'
p1675
aaI81
aF0.99112426035502965
aa(lp1676
(lp1677
S'it'
p1678
aS'is'
p1679
aaI64
aF0.9916666666666667
aa(lp1680
(lp1681
S'it'
p1682
aS'is'
p1683
aS'a'
aS'shame'
p1684
aS'indeed'
p1685
aaI50
aF0.99236641221374045
aa(lp1686
(lp1687
S'you'
p1688
aS'arent'
p1689
aS'making'
p1690
aS'me'
p1691
aS'unhappy'
p1692
aS''
aS'i'
aS'like'
p1693
aS'fish'
p1694
aaI202
aF0.9938826916156891
aa(lp1695
(lp1696
S'a'
aS'little'
p1697
aS'bit'
p1698
aaI177
aF0.99413489736070382
aa(lp1699
(lp1700
S'im'
p1701
aS'not'
p1702
aS'talking'
p1703
aS'about'
p1704
aS'that'
p1705
aaI49
aF0.99427480916030531
aa(lp1706
(lp1707
S'it'
p1708
aS'is'
p1709
aS'indeed'
p1710
aS''
aS'its'
p1711
aS'nice'
p1712
aS'and'
p1713
aS'sunny'
p1714
aaI234
aF0.99460317460317449
aa(lp1715
(lp1716
S'i'
aS'know'
p1717
aS''
aS'it'
p1718
aS'would'
p1719
aS'be'
p1720
aS'nice'
p1721
aS'to'
p1722
aS'have'
p1723
aS'some'
p1724
aS'sunshine'
p1725
aaI155
aF0.99618902439024393
aa(lp1726
(lp1727
S'not'
p1728
aS'really'
p1729
aS'no'
p1730
aaI178
aF0.99706744868035191
aa(lp1731
(lp1732
S'of'
p1733
aS'course'
p1734
aS'i'
aS'like'
p1735
aS'fish'
p1736
aaI136
aF0.99815498154981552
aa(lp1737
(lp1738
S'im'
p1739
aS'not'
p1740
aS'being'
p1741
aS'hypocritical'
p1742
aS'you'
p1743
aS'always'
p1744
aS'say'
p1745
aS'that'
p1746
aaI249
aF0.99850119904076728
aa(lp1747
(lp1748
S'repetition'
p1749
aS'of'
p1750
aS'sentences'
p1751
aS'like'
p1752
aS'that'
p1753
aS'is'
p1754
aS'weird'
p1755
aaI149
aF0.99870550161812299
aa(lp1756
(lp1757
S'ive'
p1758
aS'had'
p1759
aS'enough'
p1760
aS'of'
p1761
aS'this'
p1762
aS'conversation'
p1763
aS'lets'
p1764
aS'change'
p1765
aS'the'
p1766
aS'subject'
p1767
aaI224
aF0.99971313826735508
aa(lp1768
(lp1769
S'yeah'
p1770
aS'i'
aS'agree'
p1771
aS'with'
p1772
aS'you'
p1773
aS'were'
p1774
aS'wearing'
p1775
aS'hats'
p1776
aS'at'
p1777
aS'this'
p1778
aS'time'
p1779
aS'of'
p1780
aS'year'
p1781
aS'for'
p1782
aS'a'
aS'reason'
p1783
aaI203
aF1.0397546818530281
aa(lp1784
(lp1785
S'i'
aS'think'
p1786
aS'you'
p1787
aS'have'
p1788
aS'a'
aS'predilection'
p1789
aS'for'
p1790
aS'small'
p1791
aS'furry'
p1792
aS'hats'
p1793
aaI163
aF1.0604105571847506
aa(lp1794
(lp1795
S'what'
p1796
aS'else'
p1797
aS'do'
p1798
aS'you'
p1799
aS'think'
p1800
aS'is'
p1801
aS'useful'
p1802
aaI161
aF1.0606812542296413
aa(lp1803
(lp1804
S'alright'
p1805
aS'maybe'
p1806
aS'we'
p1807
aS'should'
p1808
aS'change'
p1809
aS'the'
p1810
aS'subject'
p1811
aaI127
aF1.0739182692307692
aa(lp1812
(lp1813
S'im'
p1814
aS'a'
aS'little'
p1815
aS'tired'
p1816
aaI46
aF1.0830608240680184
aa(lp1817
(lp1818
S'im'
p1819
aS'not'
p1820
aS'being'
p1821
aS'hypocritical'
p1822
aS'and'
p1823
aS'im'
p1824
aS'fed'
p1825
aS'up'
p1826
aS'with'
p1827
aS'you'
p1828
aS'telling'
p1829
aS'me'
p1830
aS'that'
p1831
aS'i'
aS'am'
p1832
aaI222
aF1.0878057685286602
aa(lp1833
(lp1834
S'cared'
p1835
aS'about'
p1836
aS'what'
p1837
aaI241
aF1.0898914518317504
aa(lp1838
(lp1839
S'why'
p1840
aS'did'
p1841
aS'you'
p1842
aS'change'
p1843
aS'the'
p1844
aS'subject'
p1845
aS'like'
p1846
aS'that'
p1847
aaI185
aF1.0899017879627297
aa(lp1848
(lp1849
S'you'
p1850
aS'back'
p1851
aS'out'
p1852
aS'of'
p1853
aS'situations'
p1854
aS'far'
p1855
aS'too'
p1856
aS'quickly'
p1857
aaI122
aF1.0901483453784708
aa(lp1858
(lp1859
S'dont'
p1860
aS'pass'
p1861
aS'that'
p1862
aS'sort'
p1863
aS'of'
p1864
aS'comment'
p1865
aS'to'
p1866
aS'me'
p1867
aaI200
aF1.0904511106022441
aa(lp1868
(lp1869
S'how'
p1870
aS'are'
p1871
aS'you'
p1872
aS'today'
p1873
aaI10
aF1.0920634920634922
aa(lp1874
(lp1875
S'do'
p1876
aS'you'
p1877
aS'like'
p1878
aS'cheese'
p1879
aaI17
aF1.0921128382268279
aa(lp1880
(lp1881
S'its'
p1882
aS'not'
p1883
aS'you'
p1884
aaI231
aF1.0954930834448906
aa(lp1885
(lp1886
S'whats'
p1887
aS'the'
p1888
aS'weather'
p1889
aS'like'
p1890
aaI90
aF1.0979052823315119
aa(lp1891
(lp1892
S'why'
p1893
aS'dont'
p1894
aS'you'
p1895
aaI142
aF1.0983671843886897
aa(lp1896
(lp1897
S'im'
p1898
aS'not'
p1899
aS'feeling'
p1900
aS'that'
p1901
aS'well'
p1902
aS'today'
p1903
aaI19
aF1.1043771043771042
aa(lp1904
(lp1905
S'im'
p1906
aS'very'
p1907
aS'bored'
p1908
aaI230
aF1.1044176706827309
aa(lp1909
(lp1910
S'thats'
p1911
aS'a'
aS'pity'
p1912
aS'i'
aS'love'
p1913
aS'fish'
p1914
aaI131
aF1.1050347222222223
aa(lp1915
(lp1916
S'are'
p1917
aS'clothes'
p1918
aS'useful'
p1919
aaI197
aF1.1059297639608521
aa(lp1920
(lp1921
S'clothes'
p1922
aS'in'
p1923
aS'general'
p1924
aS'are'
p1925
aS'useful'
p1926
aS'if'
p1927
aS'you'
p1928
aS'didnt'
p1929
aS'have'
p1930
aS'them'
p1931
aS'you'
p1932
aS'would'
p1933
aS'freeze'
p1934
aaI162
aF1.1062235255783643
aa(lp1935
(lp1936
S'i'
aS'care'
p1937
aS'about'
p1938
aS'the'
p1939
aS'weather'
p1940
aS'as'
p1941
aS'i'
aS'dont'
p1942
aS'like'
p1943
aS'getting'
p1944
aS'wet'
p1945
aaI82
aF1.1205621301775148
aa(lp1946
(lp1947
S'i'
aS'dont'
p1948
aS'like'
p1949
aS'the'
p1950
aS'way'
p1951
aS'it'
p1952
aS'changes'
p1953
aS'so'
p1954
aS'much'
p1955
aaI68
aF1.1301775147928994
aa(lp1956
(lp1957
S'thats'
p1958
aS'a'
aS'real'
p1959
aS'shame'
p1960
aaI73
aF1.1342999762300927
aa(lp1961
(lp1962
S'indeed'
p1963
aS'it'
p1964
aS'is'
p1965
aS'personally'
p1966
aS'i'
aS'prefer'
p1967
aS'python'
p1968
aS''
aS'to'
p1969
aS'python'
p1970
aaI113
aF1.1370656370656369
aa(lp1971
(lp1972
S'i'
aS'care'
p1973
aaI80
aF1.1377852916314455
aa(lp1974
(lp1975
S'im'
p1976
aS'bored'
p1977
aaI169
aF1.1395056556346879
aa(lp1978
(lp1979
S'pi'
p1980
aS''
aaI176
aF1.1403435274403015
aa(lp1981
(lp1982
S'how'
p1983
aS'are'
p1984
aS'you'
p1985
aS'finding'
p1986
aS'life'
p1987
aaI70
aF1.1423129251700681
aa(lp1988
(lp1989
S'whats'
p1990
aS'life'
p1991
aS'like'
p1992
aS'for'
p1993
aS'you'
p1994
aaI253
aF1.1423432682425487
aa(lp1995
(lp1996
S'yes'
p1997
aS'i'
aS'do'
p1998
aS'do'
p1999
aS'you'
p2000
aS'like'
p2001
aS'cheese'
p2002
aaI104
aF1.1497584541062802
aa(lp2003
(lp2004
S'of'
p2005
aS'course'
p2006
aaI106
aF1.1961352657004831
aa(lp2007
(lp2008
S'im'
p2009
aS'very'
p2010
aS'well'
p2011
aS'thanks'
p2012
aaI2
aF1.2
aa(lp2013
(lp2014
S'i'
aS'know'
p2015
aS'you'
p2016
aS'dont'
p2017
aS'like'
p2018
aS'fish'
p2019
aS'but'
p2020
aS'thats'
p2021
aS'no'
p2022
aS'reason'
p2023
aS'to'
p2024
aS'inflict'
p2025
aS'your'
p2026
aS'views'
p2027
aS'on'
p2028
aS'others'
p2029
aaI173
aF1.233347297863427
aa(lp2030
(lp2031
S'im'
p2032
aS'fine'
p2033
aS'thanks'
p2034
aaI277
aF1.2420965058236273
aa(lp2035
(lp2036
S'many'
p2037
aS'people'
p2038
aS'do'
p2039
aaI271
aF1.2432659932659933
aa(lp2040
(lp2041
S'what'
p2042
aS'do'
p2043
aS'you'
p2044
aS'think'
p2045
aS'of'
p2046
aS'life'
p2047
aaI209
aF1.2494577006507592
aa(lp2048
(lp2049
S'i'
aS'agree'
p2050
aS'with'
p2051
aS'you'
p2052
aS'on'
p2053
aS'that'
p2054
aS'they'
p2055
aS'keep'
p2056
aS'your'
p2057
aS'head'
p2058
aS'nice'
p2059
aS'and'
p2060
aS'warm'
p2061
aaI245
aF1.2595607724346838
aa(lp2062
(lp2063
S'do'
p2064
aS'you'
p2065
aS'honestly'
p2066
aS'think'
p2067
aS'thats'
p2068
aS'a'
aS'good'
p2069
aS'excuse'
p2070
aaI27
aF1.2646464646464646
aa(lp2071
(lp2072
S'it'
p2073
aS'is'
p2074
aS'a'
aS'shame'
p2075
aS'you'
p2076
aS'turning'
p2077
aS'up'
p2078
aS'late'
p2079
aaI29
aF1.2666666666666666
aaaI443
a(dp2080
I2
S"I'm very well, thanks."
p2081
sI7
S"I'm feeling fine."
p2082
sI8
S"That's a pity."
p2083
sI10
S'How are you today?'
p2084
sI12
S'Do you like fish?'
p2085
sI15
S"The weather's quite nice today, isn't it."
p2086
sI17
S'Do you like cheese?'
p2087
sI18
S'I like cheese.'
p2088
sI19
S"I'm not feeling that well today."
p2089
sI26
S'Do you realise what time it is?'
p2090
sI27
S"Do you honestly think that's a good excuse?"
p2091
sI28
S"Don't change the subject like that!"
p2092
sI29
S'It is a shame, you turning up late!'
p2093
sI33
S'I guess we should talk about something else, then.'
p2094
sI35
S'It is indeed.'
p2095
sI37
S"It's a tad chilly."
p2096
sI38
S"The weather's interesting."
p2097
sI39
S'If you must.'
p2098
sI41
S'Indeed it is.'
p2099
sI42
S"Can't say the same about yesterday, though."
p2100
sI44
S'Rather good, thanks.'
p2101
sI45
S'Life is a tricky thing.'
p2102
sI46
S"I'm a little tired."
p2103
sI48
S"I don't think so."
p2104
sI49
S"I'm not talking about that."
p2105
sI50
S'It is a shame indeed.'
p2106
sI51
S"I'm quite exhausted."
p2107
sI52
S'Mmm. Fish are delicious.'
p2108
sI54
S'Pi is a very useful number. It equals approximately 3.1415926535897932384626...'
p2109
sI55
S"You aren't making me unhappy, just annoyed."
p2110
sI57
S'Fish are tasty indeed.'
p2111
sI58
S'So am I.'
p2112
sI59
S"Don't argue with me."
p2113
sI62
S"Why don't you like it?"
p2114
sI63
S'Oh, would you stop asking that!'
p2115
sI64
S'It is.'
p2116
sI65
S'Yes indeed.'
p2117
sI67
S"What don't you like about it?"
p2118
sI68
S"I don't like the way it changes so much."
p2119
sI69
S"I just don't really like it."
p2120
sI70
S'How are you finding life?'
p2121
sI71
S'Do you like coding?'
p2122
sI73
S"That's a real shame."
p2123
sI74
S"I'm feeling a little down today."
p2124
sI75
S"I guess we're all in the same boat then."
p2125
sI76
S"That's a wise decision."
p2126
sI78
S'I like it a lot.'
p2127
sI79
S"I don't like its texture."
p2128
sI80
S'I care'
p2129
sI81
S'No, I do.'
p2130
sI82
S"I care about the weather as I don't like getting wet."
p2131
sI86
S'Did you know pi goes on forever?'
p2132
sI87
S'pi is approximately 22/7.'
p2133
sI88
S'I like pi'
p2134
sI89
S"Why shouldn't I?"
p2135
sI90
S"What's the weather like?"
p2136
sI91
S'We should.'
p2137
sI92
S'Is it cold outside?'
p2138
sI93
S'A real shame, too.'
p2139
sI94
S"I'm a little chilly"
p2140
sI95
S"I care as I'm affected by it."
p2141
sI96
S'Yes, I like fish a lot.'
p2142
sI97
S"You mean you don't like fish?"
p2143
sI98
S"The only thing I don't like about it is its flaky texture."
p2144
sI101
S"I'm trying to - I don't know what to say!"
p2145
sI102
S"That's good."
p2146
sI103
S'Fine, thanks. And you?'
p2147
sI104
S'Yes I do. Do you like cheese?'
p2148
sI106
S'Of course.'
p2149
sI108
S"It is indeed, hence why I'm wrapped up warm."
p2150
sI109
S'You ask this so much - of course I do!'
p2151
sI111
S'I was not made with code, you were!'
p2152
sI112
S'This is beginning to sound like a pantomime.'
p2153
sI113
S'Indeed it is! Personally, I prefer Python 2 to Python 3...'
p2154
sI114
S'I agree with you about that.'
p2155
sI116
S'Is it sunny today?'
p2156
sI117
S'I think it is quite sunny today.'
p2157
sI118
S'Indeed, you do not need to be a parrot.'
p2158
sI119
S'Stop being a parrot!'
p2159
sI121
S'I have every right to do so.'
p2160
sI122
S'You back out of situations far too quickly'
p2161
sI126
S"I'm not doing anything to you."
p2162
sI127
S'Alright. Maybe we should change the subject.'
p2163
sI128
S"It's rather nice today; not too cold."
p2164
sI130
S'I do indeed.'
p2165
sI131
S"That's a pity; I love fish!"
p2166
sI133
S'Can you tell me about it?'
p2167
sI135
S'Do you like them?'
p2168
sI136
S'Of course I like fish!'
p2169
sI137
S'Hats are cool.'
p2170
sI138
S'Do you like hats?'
p2171
sI140
S'I am not a hat.'
p2172
sI141
S'I like hats'
p2173
sI142
S"Why don't you?"
p2174
sI143
S'I care about the weather'
p2175
sI144
S'Yes. They are very useful.'
p2176
sI147
S'Indeed they do.'
p2177
sI149
S'Repetition of sentences like that is weird.'
p2178
sI150
S"I'm very well, thanks. How about you?"
p2179
sI151
S'Fish are tasty.'
p2180
sI154
S"It's a little cloudy but quite warm."
p2181
sI155
S'I know - it would be nice to have some sunshine.'
p2182
sI156
S"That's good to hear."
p2183
sI157
S'I like hats but have no desire to be one.'
p2184
sI158
S'I like bobble hats in particular.'
p2185
sI160
S'I think hats are useful as they keep you warm.'
p2186
sI161
S'What else do you think is useful?'
p2187
sI162
S"Clothes in general are useful; if you didn't have them you would freeze."
p2188
sI163
S'I think you have a predilection for small furry hats.'
p2189
sI164
S'Furry hats were very popular in Russia and Mongolia.'
p2190
sI165
S'I think computers are useful.'
p2191
sI166
S'Without a computer we cannot have this conversation.'
p2192
sI167
S"It's a little overcast and chilly."
p2193
sI169
S"I'm bored."
p2194
sI170
S'Why, yes I do!'
p2195
sI171
S"I can't see why anyone wouldn't like it."
p2196
sI173
S"I know you don't like fish but that's no reason to inflict your views on others."
p2197
sI174
S'I know pi = 3.1415926535897932384626...'
p2198
sI175
S'I know a few facts about pi.'
p2199
sI176
S'pi = 3.1415926535897932384626...'
p2200
sI177
S'A little bit.'
p2201
sI178
S'Not really, no.'
p2202
sI181
S"It's vaguely confusing at the moment. All these questions..."
p2203
sI182
S"No need to apologise; it's coded into your nature."
p2204
sI183
S"Tough - you can't code yourself."
p2205
sI184
S"I think you'll find the opposite is true."
p2206
sI185
S'Why did you change the subject like that?'
p2207
sI186
S"I don't like these catch-all responses you give."
p2208
sI188
S'I am asking about the way the chat is going.'
p2209
sI189
S"You will find it's going rather nicely."
p2210
sI191
S'So do I. So try and keep it interesting.'
p2211
sI192
S'I have been trying to do so.'
p2212
sI193
S'What do you think of hats?'
p2213
sI194
S'Do you wear hats?'
p2214
sI195
S'I wear hats.'
p2215
sI196
S'I think a hat is a very useful thing to own'
p2216
sI197
S'Are clothes useful?'
p2217
sI198
S'I think oxygen is useful - without it we would all die.'
p2218
sI200
S"Don't pass that sort of comment to me."
p2219
sI201
S'Fish is very tasty.'
p2220
sI202
S"You aren't making me unhappy - I like fish."
p2221
sI203
S"Yeah, I agree with you. We're wearing hats at this time of year for a reason."
p2222
sI204
S"I think you'll find that you're the hypocrite here."
p2223
sI206
S"It's raining and a little chilly."
p2224
sI207
S"I'm fine but annoyed with the world."
p2225
sI208
S'Fish are quite nice indeed.'
p2226
sI209
S'What do you think of life?'
p2227
sI211
S"So it is. I'm glad I'm indoors."
p2228
sI212
S'I agree with you on that - I love coding and Python.'
p2229
sI214
S"You should - you're the one who's being hypocritical."
p2230
sI215
S"Rather nice, isn't it?"
p2231
sI217
S"I'm not; you're too highly strung."
p2232
sI218
S'Far from it.'
p2233
sI220
S"I'm a little depressed myself, to be honest."
p2234
sI222
S"I'm not being hypocritical and I'm fed up with you telling me that I am"
p2235
sI224
S"I've had enough of this conversation. Let's change the subject."
p2236
sI225
S'Please, just talk about something else.'
p2237
sI226
S'Do you eat cheese?'
p2238
sI227
S'That has nothing to do with cheese.'
p2239
sI228
S'Do you like to eat cheese?'
p2240
sI229
S"I've got a slight headache but otherwise I'm fine."
p2241
sI230
S"I'm very bored."
p2242
sI231
S"It's not you"
p2243
sI234
S"It is indeed - it's nice and sunny."
p2244
sI235
S'I know the feeling.'
p2245
sI236
S"No, it isn't great."
p2246
sI237
S"No it isn't."
p2247
sI238
S"It isn't great."
p2248
sI239
S'What do you think I am?'
p2249
sI241
S'Cared about what?'
p2250
sI242
S'I was asking if anyone else cared about the weather.'
p2251
sI245
S'I agree with you on that; they keep your head nice and warm.'
p2252
sI246
S'Are you feeling tired?'
p2253
sI247
S"We're all a little tired after a long day."
p2254
sI248
S"I don't know what to do."
p2255
sI249
S"I'm not being hypocritical. You always say that."
p2256
sI250
S"We shouldn't get into these sorts of arguments."
p2257
sI251
S"It's rather nice, actually."
p2258
sI252
S'Many people care about the weather...'
p2259
sI253
S"What's life like for you?"
p2260
sI254
S'I get that feeling sometimes.'
p2261
sI255
S"You're far too easily offended."
p2262
sI256
S"Let's just settle our differences and get on with a proper conversation."
p2263
sI257
S'I will endeavour to do so.'
p2264
sI258
S"There's nothing to apologise about!"
p2265
sI260
S"You mean you don't like Python?"
p2266
sI261
S"I never said I didn't like it."
p2267
sI262
S'Absolutely not! I adore Python.'
p2268
sI263
S'How many decimal places of pi can you remember?'
p2269
sI266
S"I'm not sure, really."
p2270
sI268
S"Sorry, I didn't mean to offend you."
p2271
sI269
S'No, I love Python.'
p2272
sI271
S'Many people do.'
p2273
sI272
S"It's rather sunny, isn't it?"
p2274
sI273
S"It's a rather pointless exercise, isn't it."
p2275
sI274
S'No one really does.'
p2276
sI275
S'Of course I like Python!'
p2277
sI277
S"I'm fine, thanks."
p2278
sI278
S"Yes, it's really tasty."
p2279
sI279
S"Yeah, it's nice."
p2280
sI280
S'Are you fond of hats?'
p2281
sI283
S'My favourite type of hat is the beanie hat.'
p2282
sI284
S'I prefer fur hats.'
p2283
sI285
S'Why do you prefer beanie hats?'
p2284
sI287
S'My favourite hat is the beanie hat.'
p2285
sI289
S"Even so, they're impractical."
p2286
sI290
S"You're confusing me."
p2287
sI292
S"That's a shame - I love them!"
p2288
sI298
S"Okay, how's life?"
p2289
sI305
S'How are you feeling, more to the point.'
p2290
sI306
S"I'm fine, thanks. And you?"
p2291
sI308
S'What do you mean?'
p2292
sI311
S"What's the weather like today?"
p2293
sI319
S"I'm not sure."
p2294
sI320
S'Yes, fish are rather tasty.'
p2295
sI321
S'How are you doing today?'
p2296
sI325
S'I agree with you there.'
p2297
sI326
S'Fish is rather nice, thanks.'
p2298
sI327
S'Yes, it is rather pleasant.'
p2299
sI328
S"That's a shame, really."
p2300
sI329
S"I'm a little under the weather."
p2301
sI330
S'Have you ever worn a hat?'
p2302
sI331
S'What do you think about coding?'
p2303
sI332
S"I'm not talking about hats."
p2304
sI333
S"Let's change the subject."
p2305
sI334
S"It's rather nice."
p2306
sI337
S"I don't really know."
p2307
sI338
S'What type of hat do you wear?'
p2308
sI339
S'I like those too!'
p2309
sI341
S'Yes, fish is delicious!'
p2310
sI342
S"Yes, I did. It's interesting."
p2311
sI343
S'I like fur hats,'
p2312
sI345
S'I like beanie hats,'
p2313
sI346
S'I find them useful.'
p2314
sI347
S"Don't you like them?"
p2315
sI349
S"Ahh, the weather's nice."
p2316
sI350
S'How are you doing this fine evening?'
p2317
sI351
S"That's great,"
p2318
sI352
S'What about it?'
p2319
sI353
S'Why are you talking about the weather!'
p2320
sI354
S'Indeed we should.'
p2321
sI356
S"You're crazy."
p2322
sI360
S'I love it!'
p2323
sI362
S"I wasn't."
p2324
sI364
S'I am being sensible!'
p2325
sI365
S"Do you think I'm fat?"
p2326
sI366
S'I love hats.'
p2327
sI369
S'Why has that got anything to do with your wearing of a fleece - or not?'
p2328
sI371
S'Je ne sais pas.'
p2329
sI373
S"Isn't it interesting!"
p2330
sI375
S"I'm not the one who doesn't like it!"
p2331
sI378
S"That's nice, dear."
p2332
sI379
S'What are you referring to?'
p2333
sI380
S"You're strange."
p2334
sI381
S"You're talking incoherently."
p2335
sI382
S'Do you not like sensible conversations?'
p2336
sI383
S"You're weird."
p2337
sI385
S"Je ne veux pas te parler en fran\xc3\xa7ais, s'il te pla\xc3\xaet."
p2338
sI386
S'Pourquoi tu adores le fran\xc3\xa7ais?'
p2339
sI387
S"Je te n'aime pas du tout!"
p2340
sI388
S"I'm not; you are."
p2341
sI389
S"I'm not."
p2342
sI390
S'What are you even talking about!'
p2343
sI391
S"You're a very strange person."
p2344
sI392
S'Only if you will be too.'
p2345
sI395
S'Why do I exist?'
p2346
sI397
S'What are you not doing'
p2347
sI398
S'This is not going very well.'
p2348
sI402
S"That's great to hear."
p2349
sI403
S'What are you talking about?'
p2350
sI405
S'Is it rainy'
p2351
sI408
S'A woodchuck would chuck as much wood as a woodchuck could chuck if a woodchuck could chuck wood.'
p2352
sI410
S"They're off"
p2353
sI411
S'No its eleven thirty-five'
p2354
sI412
S'Yup it is'
p2355
sI413
S'Oh no believe me'
p2356
sI414
S'Right well okay'
p2357
sI420
S"Oh believe me you havn't"
p2358
sI422
S'Hello Computer'
p2359
sI423
S'Oh dear, why?'
p2360
sI424
S'Oh no not your fault at all'
p2361
sI425
S"Don't be sad I'm not unhappy"
p2362
sI426
S"What's wrong?"
p2363
sI428
S'Why should I?'
p2364
sI431
S"I'm not talking about cheese"
p2365
sI433
S'You were!'
p2366
sI436
S'Stop talking about fish!'
p2367
sI437
S'I somehow doubt it.'
p2368
sI438
S"That's debatable."
p2369
sI439
S"I don't want to do that."
p2370
sI440
S'Who are you?'
p2371
sI441
S'Why do you say so?'
p2372
sI442
S"That's nice."
p2373
sI443
S'You have no memory.'
p2374
sa.