(lp1
(lp2
(lp3
(lp4
S'woop'
p5
aS'woop'
p6
aaI399
aF-0.29999999999999999
aa(lp7
(lp8
S'its'
p9
aS'cool'
p10
aaI393
aF0.047370550161812297
aa(lp11
(lp12
S'you'
p13
aS'have'
p14
aS'no'
p15
aS'sense'
p16
aS'of'
p17
aS'a'
aS'proper'
p18
aS'conversation'
p19
aaI396
aF0.061165048543689315
aa(lp20
(lp21
S'isnt'
p22
aS'it'
p23
aS'interesting'
p24
aaI373
aF0.14914015477214101
aa(lp25
(lp26
S'youre'
p27
aS'talking'
p28
aS'incoherently'
p29
aaI381
aF0.14957374254049446
aa(lp30
(lp31
S'thats'
p32
aS'a'
aS'shame'
p33
aS'really'
p34
aaI328
aF0.16596712137110878
aa(lp35
(lp36
S'youre'
p37
aS'a'
aS'very'
p38
aS'strange'
p39
aS'person'
p40
aaI391
aF0.17686403508771931
aa(lp41
(lp42
S'dont'
p43
aS'you'
p44
aS'like'
p45
aS'them'
p46
aaI347
aF0.17687351644625299
aa(lp47
(lp48
S'i'
aS'find'
p49
aS'them'
p50
aS'useful'
p51
aaI346
aF0.17709541680882518
aa(lp52
(lp53
S'je'
p54
aS'te'
p55
aS'naime'
p56
aS'pas'
p57
aS'du'
p58
aS'tout'
p59
aaI387
aF0.18512524084778414
aa(lp60
(lp61
S'youre'
p62
aS'weird'
p63
aaI383
aF0.19857914180164818
aa(lp64
(lp65
S'thats'
p66
aS'great'
p67
aaI351
aF0.19865047233468283
aa(lp68
(lp69
S'youre'
p70
aS'crazy'
p71
aaI356
aF0.1986915276414786
aa(lp72
(lp73
S'youre'
p74
aS'strange'
p75
aaI380
aF0.19885942400912462
aa(lp76
(lp77
S'im'
p78
aS'not'
p79
aS'talking'
p80
aS'about'
p81
aS'hats'
p82
aaI332
aF0.19916054564533053
aa(lp83
(lp84
S'fish'
p85
aS'is'
p86
aS'rather'
p87
aS'nice'
p88
aS'thanks'
p89
aaI326
aF0.19936775553213909
aa(lp90
(lp91
S'im'
p92
aS'not'
p93
aS'the'
p94
aS'one'
p95
aS'who'
p96
aS'doesnt'
p97
aS'like'
p98
aS'it'
p99
aaI375
aF0.21141609894834312
aa(lp100
(lp101
S'i'
aS'am'
p102
aS'being'
p103
aS'sensible'
p104
aaI364
aF0.24930232558139534
aa(lp105
(lp106
S'yes'
p107
aS'fish'
p108
aS'is'
p109
aS'delicious'
p110
aaI341
aF0.25154019534184824
aa(lp111
(lp112
S'how'
p113
aS'are'
p114
aS'you'
p115
aS'doing'
p116
aS'this'
p117
aS'fine'
p118
aS'evening'
p119
aaI350
aF0.2533686378346573
aa(lp120
(lp121
S'im'
p122
aS'not'
p123
aS'sure'
p124
aaI319
aF0.26863876863876868
aa(lp125
(lp126
S'why'
p127
aS'are'
p128
aS'you'
p129
aS'talking'
p130
aS'about'
p131
aS'the'
p132
aS'weather'
p133
aaI353
aF0.27808948352754997
aa(lp134
(lp135
S'why'
p136
aS'has'
p137
aS'that'
p138
aS'got'
p139
aS'anything'
p140
aS'to'
p141
aS'do'
p142
aS'with'
p143
aS'your'
p144
aS'wearing'
p145
aS'of'
p146
aS'a'
aS'fleece'
p147
aS''
aS'or'
p148
aS'not'
p149
aaI369
aF0.28850902184235516
aa(lp150
(lp151
S'im'
p152
aS'not'
p153
aaI389
aF0.29136513157894733
aa(lp154
(lp155
S'i'
aS'love'
p156
aS'it'
p157
aaI360
aF0.300126742712294
aa(lp158
(lp159
S'i'
aS'love'
p160
aS'hats'
p161
aaI366
aF0.30027598896044161
aa(lp162
(lp163
S'indeed'
p164
aS'we'
p165
aS'should'
p166
aaI354
aF0.308873223676849
aa(lp167
(lp168
S'im'
p169
aS'not'
p170
aS'you'
p171
aS'are'
p172
aaI388
aF0.31309210526315784
aa(lp173
(lp174
S'this'
p175
aS'is'
p176
aS'not'
p177
aS'going'
p178
aS'very'
p179
aS'well'
p180
aaI398
aF0.31466019417475727
aa(lp181
(lp182
S'only'
p183
aS'if'
p184
aS'you'
p185
aS'will'
p186
aS'be'
p187
aS'too'
p188
aaI392
aF0.31838186263614138
aa(lp189
(lp190
S'what'
p191
aS'are'
p192
aS'you'
p193
aS'even'
p194
aS'talking'
p195
aS'about'
p196
aaI390
aF0.31919856459330143
aa(lp197
(lp198
S'do'
p199
aS'you'
p200
aS'not'
p201
aS'like'
p202
aS'sensible'
p203
aS'conversations'
p204
aaI382
aF0.32277764860885066
aa(lp205
(lp206
S'what'
p207
aS'are'
p208
aS'you'
p209
aS'not'
p210
aS'doing'
p211
aaI397
aF0.3233009708737864
aa(lp212
(lp213
S'i'
aS'agree'
p214
aS'with'
p215
aS'you'
p216
aS'there'
p217
aaI325
aF0.3369521349584309
aa(lp218
(lp219
S'je'
p220
aS'ne'
p221
aS'veux'
p222
aS'pas'
p223
aS'te'
p224
aS'parler'
p225
aS'en'
p226
aS'franais'
p227
aS'sil'
p228
aS'te'
p229
aS'plat'
p230
aaI385
aF0.35156748270617666
aa(lp231
(lp232
S'i'
aS'like'
p233
aS'those'
p234
aS'too'
p235
aaI339
aF0.38566308243727598
aa(lp236
(lp237
S'what'
p238
aS'about'
p239
aS'it'
p240
aaI352
aF0.39345417925478343
aa(lp241
(lp242
S'whats'
p243
aS'the'
p244
aS'weather'
p245
aS'like'
p246
aS'today'
p247
aaI311
aF0.3942168674698795
aa(lp248
(lp249
S'yes'
p250
aS'fish'
p251
aS'are'
p252
aS'rather'
p253
aS'tasty'
p254
aaI320
aF0.39700214132762313
aa(lp255
(lp256
S'thats'
p257
aS'a'
aS'shame'
p258
aS''
aS'i'
aS'love'
p259
aS'them'
p260
aaI292
aF0.41395838204348845
aa(lp261
(lp262
S'im'
p263
aS'a'
aS'little'
p264
aS'under'
p265
aS'the'
p266
aS'weather'
p267
aaI329
aF0.41613528129792554
aa(lp268
(lp269
S'what'
p270
aS'type'
p271
aS'of'
p272
aS'hat'
p273
aS'do'
p274
aS'you'
p275
aS'wear'
p276
aaI338
aF0.42740734811494435
aa(lp277
(lp278
S'we'
p279
aS'shouldnt'
p280
aS'get'
p281
aS'into'
p282
aS'these'
p283
aS'sorts'
p284
aS'of'
p285
aS'arguments'
p286
aaI250
aF0.42805755395683454
aa(lp287
(lp288
S'without'
p289
aS'a'
aS'computer'
p290
aS'we'
p291
aS'cannot'
p292
aS'have'
p293
aS'this'
p294
aS'conversation'
p295
aaI166
aF0.42815249266862165
aa(lp296
(lp297
S'its'
p298
aS'rather'
p299
aS'nice'
p300
aaI334
aF0.43500520291363154
aa(lp301
(lp302
S'is'
p303
aS'it'
p304
aS'cold'
p305
aS'outside'
p306
aaI92
aF0.43850267379679142
aa(lp307
(lp308
S'stop'
p309
aS'being'
p310
aS'a'
aS'parrot'
p311
aaI119
aF0.43959243085880639
aa(lp312
(lp313
S'theres'
p314
aS'nothing'
p315
aS'to'
p316
aS'apologise'
p317
aS'about'
p318
aaI258
aF0.44004796163069543
aa(lp319
(lp320
S'mmm'
p321
aS'fish'
p322
aS'are'
p323
aS'delicious'
p324
aaI52
aF0.4427480916030534
aa(lp325
(lp326
S'i'
aS'know'
p327
aS'the'
p328
aS'feeling'
p329
aaI235
aF0.44275132275132273
aa(lp330
(lp331
S'fish'
p332
aS'are'
p333
aS'tasty'
p334
aS'indeed'
p335
aaI57
aF0.44289044289044288
aa(lp336
(lp337
S'fish'
p338
aS'are'
p339
aS'quite'
p340
aS'nice'
p341
aS'indeed'
p342
aaI208
aF0.44299831284646901
aa(lp343
(lp344
S'youre'
p345
aS'far'
p346
aS'too'
p347
aS'easily'
p348
aS'offended'
p349
aaI255
aF0.44324540367705834
aa(lp350
(lp351
S'i'
aS'prefer'
p352
aS'fur'
p353
aS'hats'
p354
aaI284
aF0.44337606837606836
aa(lp355
(lp356
S'is'
p357
aS'it'
p358
aS'sunny'
p359
aS'today'
p360
aaI116
aF0.44347404172731686
aa(lp361
(lp362
S'no'
p363
aS'one'
p364
aS'really'
p365
aS'does'
p366
aaI274
aF0.44407033295922183
aa(lp367
(lp368
S'tough'
p369
aS''
aS'you'
p370
aS'cant'
p371
aS'code'
p372
aS'yourself'
p373
aaI183
aF0.45429362880886426
aa(lp374
(lp375
S'i'
aS'agree'
p376
aS'with'
p377
aS'you'
p378
aS'about'
p379
aS'that'
p380
aaI114
aF0.45530145530145533
aa(lp381
(lp382
S'je'
p383
aS'ne'
p384
aS'sais'
p385
aS'pas'
p386
aaI371
aF0.45912413654349138
aa(lp387
(lp388
S'its'
p389
aS'a'
aS'rather'
p390
aS'pointless'
p391
aS'exercise'
p392
aS'isnt'
p393
aS'it'
p394
aaI273
aF0.4592074592074592
aa(lp395
(lp396
S'its'
p397
aS'rather'
p398
aS'nice'
p399
aS'today'
p400
aS'not'
p401
aS'too'
p402
aS'cold'
p403
aaI128
aF0.4609375
aa(lp404
(lp405
S'how'
p406
aS'are'
p407
aS'you'
p408
aS'feeling'
p409
aS'more'
p410
aS'to'
p411
aS'the'
p412
aS'point'
p413
aaI305
aF0.48717948717948711
aa(lp414
(lp415
S'i'
aS'dont'
p416
aS'know'
p417
aS'what'
p418
aS'to'
p419
aS'do'
p420
aaI248
aF0.48920863309352519
aa(lp421
(lp422
S'no'
p423
aS'it'
p424
aS'isnt'
p425
aS'great'
p426
aaI236
aF0.49333333333333335
aa(lp427
(lp428
S'did'
p429
aS'you'
p430
aS'know'
p431
aS'pi'
p432
aS'goes'
p433
aS'on'
p434
aS'forever'
p435
aaI86
aF0.49376114081996436
aa(lp436
(lp437
S'do'
p438
aS'you'
p439
aS'think'
p440
aS'im'
p441
aS'fat'
p442
aaI365
aF0.49637869030693316
aa(lp443
(lp444
S'i'
aS'am'
p445
aS'not'
p446
aS'a'
aS'hat'
p447
aaI140
aF0.49701314217443249
aa(lp448
(lp449
S'absolutely'
p450
aS'not'
p451
aS'i'
aS'adore'
p452
aS'python'
p453
aaI262
aF0.49706055261610815
aa(lp454
(lp455
S'the'
p456
aS'weathers'
p457
aS'quite'
p458
aS'nice'
p459
aS'today'
p460
aS'isnt'
p461
aS'it'
p462
aaI15
aF0.49717514124293782
aa(lp463
(lp464
S'i'
aS'care'
p465
aS'as'
p466
aS'im'
p467
aS'affected'
p468
aS'by'
p469
aS'it'
p470
aaI95
aF0.49821746880570406
aa(lp471
(lp472
S'i'
aS'have'
p473
aS'every'
p474
aS'right'
p475
aS'to'
p476
aS'do'
p477
aS'so'
p478
aaI121
aF0.49860529986052993
aa(lp479
(lp480
S'i'
aS'think'
p481
aS'it'
p482
aS'is'
p483
aS'quite'
p484
aS'sunny'
p485
aS'today'
p486
aaI117
aF0.49927219796215427
aa(lp487
(lp488
S'i'
aS'have'
p489
aS'been'
p490
aS'trying'
p491
aS'to'
p492
aS'do'
p493
aS'so'
p494
aaI192
aF0.49956822107081172
aa(lp495
(lp496
S'i'
aS'get'
p497
aS'that'
p498
aS'feeling'
p499
aS'sometimes'
p500
aaI254
aF0.49970023980815348
aa(lp501
(lp502
S'i'
aS'like'
p503
aS'cheese'
p504
aaI18
aF0.5
aa(lp505
(lp506
S'pi'
p507
aS'is'
p508
aS'approximately'
p509
aaI87
aF0.5
aa(lp510
(lp511
S'what'
p512
aS'do'
p513
aS'you'
p514
aS'mean'
p515
aaI308
aF0.50576051779935283
aa(lp516
(lp517
S'why'
p518
aS'do'
p519
aS'i'
aS'exist'
p520
aaI395
aF0.50592233009708742
aa(lp521
(lp522
S'pourquoi'
p523
aS'tu'
p524
aS'adores'
p525
aS'le'
p526
aS'franais'
p527
aaI386
aF0.50698896479243294
aa(lp528
(lp529
S'thats'
p530
aS'nice'
p531
aS'dear'
p532
aaI378
aF0.50817548576316751
aa(lp533
(lp534
S'i'
aS'wasnt'
p535
aaI362
aF0.51689922480620154
aa(lp536
(lp537
S'lets'
p538
aS'change'
p539
aS'the'
p540
aS'subject'
p541
aaI333
aF0.52656954561220959
aa(lp542
(lp543
S'im'
p544
aS'a'
aS'little'
p545
aS'depressed'
p546
aS'myself'
p547
aS'to'
p548
aS'be'
p549
aS'honest'
p550
aaI220
aF0.52690763052208833
aa(lp551
(lp552
S'pi'
p553
aS'is'
p554
aS'a'
aS'very'
p555
aS'useful'
p556
aS'number'
p557
aS'it'
p558
aS'equals'
p559
aS'approximately'
p560
aaI54
aF0.53146853146853146
aa(lp561
(lp562
S'no'
p563
aS'need'
p564
aS'to'
p565
aS'apologise'
p566
aS'its'
p567
aS'coded'
p568
aS'into'
p569
aS'your'
p570
aS'nature'
p571
aaI182
aF0.53222530009233615
aa(lp572
(lp573
S'i'
aS'think'
p574
aS'youll'
p575
aS'find'
p576
aS'that'
p577
aS'youre'
p578
aS'the'
p579
aS'hypocrite'
p580
aS'here'
p581
aaI204
aF0.53266162888329138
aa(lp582
(lp583
S'why'
p584
aS'do'
p585
aS'you'
p586
aS'prefer'
p587
aS'beanie'
p588
aS'hats'
p589
aaI285
aF0.53467365967365965
aa(lp590
(lp591
S'can'
p592
aS'you'
p593
aS'tell'
p594
aS'me'
p595
aS'about'
p596
aS'it'
p597
aaI133
aF0.53512396694214881
aa(lp598
(lp599
S'i'
aS'like'
p600
aS'bobble'
p601
aS'hats'
p602
aS'in'
p603
aS'particular'
p604
aaI158
aF0.5360310421286032
aa(lp605
(lp606
S'yes'
p607
aS'i'
aS'like'
p608
aS'fish'
p609
aS'a'
aS'lot'
p610
aaI96
aF0.5376762275157998
aa(lp611
(lp612
S'you'
p613
aS'mean'
p614
aS'you'
p615
aS'dont'
p616
aS'like'
p617
aS'fish'
p618
aaI97
aF0.5376762275157998
aa(lp619
(lp620
S'what'
p621
aS'do'
p622
aS'you'
p623
aS'think'
p624
aS'of'
p625
aS'hats'
p626
aaI193
aF0.53791804050871406
aa(lp627
(lp628
S'you'
p629
aS'mean'
p630
aS'you'
p631
aS'dont'
p632
aS'like'
p633
aS'python'
p634
aaI260
aF0.53839987173320503
aa(lp635
(lp636
S'why'
p637
aS'dont'
p638
aS'you'
p639
aS'like'
p640
aS'it'
p641
aaI62
aF0.53863636363636358
aa(lp642
(lp643
S'its'
p644
aS'a'
aS'little'
p645
aS'overcast'
p646
aS'and'
p647
aS'chilly'
p648
aaI167
aF0.54118901626233007
aa(lp649
(lp650
S'its'
p651
aS'raining'
p652
aS'and'
p653
aS'a'
aS'little'
p654
aS'chilly'
p655
aaI206
aF0.54179070299977106
aa(lp656
(lp657
S'i'
aS'dont'
p658
aS'like'
p659
aS'its'
p660
aS'texture'
p661
aaI79
aF0.54222700376546529
aa(lp662
(lp663
S'i'
aS'think'
p664
aS'computers'
p665
aS'are'
p666
aS'useful'
p667
aaI165
aF0.54225539856038396
aa(lp668
(lp669
S'its'
p670
aS'rather'
p671
aS'sunny'
p672
aS'isnt'
p673
aS'it'
p674
aaI272
aF0.54269972451790638
aa(lp675
(lp676
S'im'
p677
aS'feeling'
p678
aS'a'
aS'little'
p679
aS'down'
p680
aS'today'
p681
aaI74
aF0.54330285099515874
aa(lp682
(lp683
S'many'
p684
aS'people'
p685
aS'care'
p686
aS'about'
p687
aS'the'
p688
aS'weather'
p689
aaI252
aF0.54480052321778949
aa(lp690
(lp691
S'indeed'
p692
aS'it'
p693
aS'is'
p694
aaI41
aF0.56488549618320616
aa(lp695
(lp696
S'i'
aS'think'
p697
aS'youll'
p698
aS'find'
p699
aS'the'
p700
aS'opposite'
p701
aS'is'
p702
aS'true'
p703
aaI184
aF0.56865848832607835
aa(lp704
(lp705
S'youre'
p706
aS'confusing'
p707
aS'me'
p708
aaI290
aF0.5701017249004865
aa(lp709
(lp710
S'why'
p711
aS'yes'
p712
aS'i'
aS'do'
p713
aaI170
aF0.57059069962295772
aa(lp714
(lp715
S'i'
aS'like'
p716
aS'it'
p717
aS'a'
aS'lot'
p718
aaI78
aF0.58461538461538454
aa(lp719
(lp720
S'what'
p721
aS'are'
p722
aS'you'
p723
aS'referring'
p724
aS'to'
p725
aaI379
aF0.58511548331907615
aa(lp726
(lp727
S'yes'
p728
aS'it'
p729
aS'is'
p730
aS'rather'
p731
aS'pleasant'
p732
aaI327
aF0.59160545645330531
aa(lp733
(lp734
S'i'
aS'care'
p735
aS'about'
p736
aS'the'
p737
aS'weather'
p738
aaI143
aF0.59354838709677415
aa(lp739
(lp740
S'im'
p741
aS'fine'
p742
aS'thanks'
p743
aS'and'
p744
aS'you'
p745
aaI306
aF0.5951527924130664
aa(lp746
(lp747
S'even'
p748
aS'so'
p749
aS'theyre'
p750
aS'impractical'
p751
aaI289
aF0.59597523219814241
aa(lp752
(lp753
S'fish'
p754
aS'is'
p755
aS'very'
p756
aS'tasty'
p757
aaI201
aF0.59848866498740549
aa(lp758
(lp759
S'dont'
p760
aS'argue'
p761
aS'with'
p762
aS'me'
p763
aaI59
aF0.5986013986013986
aa(lp764
(lp765
S'im'
p766
aS'not'
p767
aS'youre'
p768
aS'too'
p769
aS'highly'
p770
aS'strung'
p771
aaI217
aF0.59879518072289162
aa(lp772
(lp773
S'im'
p774
aS'a'
aS'little'
p775
aS'chilly'
p776
aaI94
aF0.59893048128342241
aa(lp777
(lp778
S'im'
p779
aS'not'
p780
aS'doing'
p781
aS'anything'
p782
aS'to'
p783
aS'you'
p784
aaI126
aF0.59921875000000002
aa(lp785
(lp786
S'rather'
p787
aS'nice'
p788
aS'isnt'
p789
aS'it'
p790
aaI215
aF0.59959016393442632
aa(lp791
(lp792
S'please'
p793
aS'just'
p794
aS'talk'
p795
aS'about'
p796
aS'something'
p797
aS'else'
p798
aaI225
aF0.59959839357429723
aa(lp799
(lp800
S'i'
aS'like'
p801
aS'fur'
p802
aS'hats'
p803
aaI343
aF0.60661157024793388
aa(lp804
(lp805
S'i'
aS'like'
p806
aS'beanie'
p807
aS'hats'
p808
aaI345
aF0.60675537359263054
aa(lp809
(lp810
S'i'
aS'dont'
p811
aS'really'
p812
aS'know'
p813
aaI337
aF0.60811654526534864
aa(lp814
(lp815
S'ahh'
p816
aS'the'
p817
aS'weathers'
p818
aS'nice'
p819
aaI349
aF0.61434997750787224
aa(lp820
(lp821
S'yes'
p822
aS'i'
aS'did'
p823
aS'its'
p824
aS'interesting'
p825
aaI342
aF0.63527892561983468
aa(lp826
(lp827
S'what'
p828
aS'do'
p829
aS'you'
p830
aS'think'
p831
aS'i'
aS'am'
p832
aaI239
aF0.6495238095238095
aa(lp833
(lp834
S'what'
p835
aS'do'
p836
aS'you'
p837
aS'think'
p838
aS'about'
p839
aS'coding'
p840
aaI331
aF0.65250087443161942
aa(lp841
(lp842
S'do'
p843
aS'you'
p844
aS'realise'
p845
aS'what'
p846
aS'time'
p847
aS'it'
p848
aS'is'
p849
aaI26
aF0.65370370370370368
aa(lp850
(lp851
S'thats'
p852
aS'a'
aS'pity'
p853
aaI8
aF0.65509761388286336
aa(lp854
(lp855
S'no'
p856
aS'i'
aS'love'
p857
aS'python'
p858
aaI269
aF0.65642775881683735
aa(lp859
(lp860
S'do'
p861
aS'you'
p862
aS'wear'
p863
aS'hats'
p864
aaI194
aF0.65745538284398386
aa(lp865
(lp866
S'sorry'
p867
aS'i'
aS'didnt'
p868
aS'mean'
p869
aS'to'
p870
aS'offend'
p871
aS'you'
p872
aaI268
aF0.65898748577929467
aa(lp873
(lp874
S'i'
aS'never'
p875
aS'said'
p876
aS'i'
aS'didnt'
p877
aS'like'
p878
aS'it'
p879
aaI261
aF0.65931804820693707
aa(lp880
(lp881
S'cant'
p882
aS'say'
p883
aS'the'
p884
aS'same'
p885
aS'about'
p886
aS'yesterday'
p887
aS'though'
p888
aaI42
aF0.66157760814249356
aa(lp889
(lp890
S'that'
p891
aS'has'
p892
aS'nothing'
p893
aS'to'
p894
aS'do'
p895
aS'with'
p896
aS'cheese'
p897
aaI227
aF0.66164658634538154
aa(lp898
(lp899
S'its'
p900
aS'a'
aS'little'
p901
aS'cloudy'
p902
aS'but'
p903
aS'quite'
p904
aS'warm'
p905
aaI154
aF0.66260162601626016
aa(lp906
(lp907
S'i'
aS'know'
p908
aS'pi'
p909
aS''
aaI174
aF0.66275659824046917
aa(lp910
(lp911
S'im'
p912
aS'fine'
p913
aS'but'
p914
aS'annoyed'
p915
aS'with'
p916
aS'the'
p917
aS'world'
p918
aaI207
aF0.66305133767172808
aa(lp919
(lp920
S'i'
aS'was'
p921
aS'asking'
p922
aS'if'
p923
aS'anyone'
p924
aS'else'
p925
aS'cared'
p926
aS'about'
p927
aS'the'
p928
aS'weather'
p929
aaI242
aF0.6637645107794361
aa(lp930
(lp931
S'im'
p932
aS'very'
p933
aS'well'
p934
aS'thanks'
p935
aS'how'
p936
aS'about'
p937
aS'you'
p938
aaI150
aF0.66396979503775622
aa(lp939
(lp940
S'of'
p941
aS'course'
p942
aS'i'
aS'like'
p943
aS'python'
p944
aaI275
aF0.66442199775533106
aa(lp945
(lp946
S'fine'
p947
aS'thanks'
p948
aS'and'
p949
aS'you'
p950
aaI103
aF0.66451959205582389
aa(lp951
(lp952
S'its'
p953
aS'vaguely'
p954
aS'confusing'
p955
aS'at'
p956
aS'the'
p957
aS'moment'
p958
aS'all'
p959
aS'these'
p960
aS'questions'
p961
aaI181
aF0.66592797783933522
aa(lp962
(lp963
S'have'
p964
aS'you'
p965
aS'ever'
p966
aS'worn'
p967
aS'a'
aS'hat'
p968
aaI330
aF0.67170657254602695
aa(lp969
(lp970
S'okay'
p971
aS'hows'
p972
aS'life'
p973
aaI298
aF0.69776536312849158
aa(lp974
(lp975
S'i'
aS'guess'
p976
aS'we'
p977
aS'should'
p978
aS'talk'
p979
aS'about'
p980
aS'something'
p981
aS'else'
p982
aS'then'
p983
aaI33
aF0.71186440677966101
aa(lp984
(lp985
S'it'
p986
aS'is'
p987
aS'indeed'
p988
aS'hence'
p989
aS'why'
p990
aS'im'
p991
aS'wrapped'
p992
aS'up'
p993
aS'warm'
p994
aaI108
aF0.71225457007447524
aa(lp995
(lp996
S'i'
aS'guess'
p997
aS'were'
p998
aS'all'
p999
aS'in'
p1000
aS'the'
p1001
aS'same'
p1002
aS'boat'
p1003
aS'then'
p1004
aaI75
aF0.71259509721048175
aa(lp1005
(lp1006
S'furry'
p1007
aS'hats'
p1008
aS'were'
p1009
aS'very'
p1010
aS'popular'
p1011
aS'in'
p1012
aS'russia'
p1013
aS'and'
p1014
aS'mongolia'
p1015
aaI164
aF0.71386677838290735
aa(lp1016
(lp1017
S'how'
p1018
aS'many'
p1019
aS'decimal'
p1020
aS'places'
p1021
aS'of'
p1022
aS'pi'
p1023
aS'can'
p1024
aS'you'
p1025
aS'remember'
p1026
aaI263
aF0.71403376165280918
aa(lp1027
(lp1028
S'what'
p1029
aS'dont'
p1030
aS'you'
p1031
aS'like'
p1032
aS'about'
p1033
aS'it'
p1034
aaI67
aF0.71436256051640679
aa(lp1035
(lp1036
S'you'
p1037
aS'will'
p1038
aS'find'
p1039
aS'its'
p1040
aS'going'
p1041
aS'rather'
p1042
aS'nicely'
p1043
aaI189
aF0.72630043753038398
aa(lp1044
(lp1045
S'i'
aS'agree'
p1046
aS'with'
p1047
aS'you'
p1048
aS'on'
p1049
aS'that'
p1050
aS''
aS'i'
aS'love'
p1051
aS'coding'
p1052
aS'and'
p1053
aS'python'
p1054
aaI212
aF0.72994325136307991
aa(lp1055
(lp1056
S'if'
p1057
aS'you'
p1058
aS'must'
p1059
aaI39
aF0.73999999999999999
aa(lp1060
(lp1061
S'im'
p1062
aS'feeling'
p1063
aS'fine'
p1064
aaI7
aF0.74285714285714288
aa(lp1065
(lp1066
S'thats'
p1067
aS'good'
p1068
aS'to'
p1069
aS'hear'
p1070
aaI156
aF0.74314024390243905
aa(lp1071
(lp1072
S'life'
p1073
aS'is'
p1074
aS'a'
aS'tricky'
p1075
aS'thing'
p1076
aaI45
aF0.74427480916030531
aa(lp1077
(lp1078
S'why'
p1079
aS'shouldnt'
p1080
aS'i'
aaI89
aF0.74598930481283421
aa(lp1081
(lp1082
S'the'
p1083
aS'weathers'
p1084
aS'interesting'
p1085
aaI38
aF0.746
aa(lp1086
(lp1087
S'im'
p1088
aS'quite'
p1089
aS'exhausted'
p1090
aaI51
aF0.74618320610687028
aa(lp1091
(lp1092
S'it'
p1093
aS'is'
p1094
aS'indeed'
p1095
aaI35
aF0.74622166246851385
aa(lp1096
(lp1097
S'so'
p1098
aS'am'
p1099
aS'i'
aaI58
aF0.74650349650349646
aa(lp1100
(lp1101
S'yeah'
p1102
aS'its'
p1103
aS'nice'
p1104
aaI279
aF0.74750415973377704
aa(lp1105
(lp1106
S'fish'
p1107
aS'are'
p1108
aS'tasty'
p1109
aaI151
aF0.74757281553398058
aa(lp1110
(lp1111
S'rather'
p1112
aS'good'
p1113
aS'thanks'
p1114
aaI44
aF0.74809160305343514
aa(lp1115
(lp1116
S'hats'
p1117
aS'are'
p1118
aS'cool'
p1119
aaI137
aF0.74815498154981552
aa(lp1120
(lp1121
S'yes'
p1122
aS'they'
p1123
aS'are'
p1124
aS'very'
p1125
aS'useful'
p1126
aaI144
aF0.74912891986062724
aa(lp1127
(lp1128
S'i'
aS'wear'
p1129
aS'hats'
p1130
aaI195
aF0.74935233160621761
aa(lp1131
(lp1132
S'i'
aS'think'
p1133
aS'oxygen'
p1134
aS'is'
p1135
aS'useful'
p1136
aS''
aS'without'
p1137
aS'it'
p1138
aS'we'
p1139
aS'would'
p1140
aS'all'
p1141
aS'die'
p1142
aaI198
aF0.77748992515831894
aa(lp1143
(lp1144
S'how'
p1145
aS'are'
p1146
aS'you'
p1147
aS'doing'
p1148
aS'today'
p1149
aaI321
aF0.78567774936061385
aa(lp1150
(lp1151
S'i'
aS'will'
p1152
aS'endeavour'
p1153
aS'to'
p1154
aS'do'
p1155
aS'so'
p1156
aaI257
aF0.78776978417266186
aa(lp1157
(lp1158
S'im'
p1159
aS'not'
p1160
aS'sure'
p1161
aS'really'
p1162
aaI266
aF0.79215017064846416
aa(lp1163
(lp1164
S'thats'
p1165
aS'good'
p1166
aaI102
aF0.7961352657004831
aa(lp1167
(lp1168
S'its'
p1169
aS'rather'
p1170
aS'nice'
p1171
aS'actually'
p1172
aaI251
aF0.7967625899280576
aa(lp1173
(lp1174
S'its'
p1175
aS'a'
aS'tad'
p1176
aS'chilly'
p1177
aaI37
aF0.79679999999999995
aa(lp1178
(lp1179
S'i'
aS'dont'
p1180
aS'think'
p1181
aS'so'
p1182
aaI48
aF0.79847328244274807
aa(lp1183
(lp1184
S'you'
p1185
aS'ask'
p1186
aS'this'
p1187
aS'so'
p1188
aS'much'
p1189
aS''
aS'of'
p1190
aS'course'
p1191
aS'i'
aS'do'
p1192
aaI109
aF0.79936808846761442
aa(lp1193
(lp1194
S'you'
p1195
aS'arent'
p1196
aS'making'
p1197
aS'me'
p1198
aS'unhappy'
p1199
aS'just'
p1200
aS'annoyed'
p1201
aaI55
aF0.82517482517482521
aa(lp1202
(lp1203
S'my'
p1204
aS'favourite'
p1205
aS'hat'
p1206
aS'is'
p1207
aS'the'
p1208
aS'beanie'
p1209
aS'hat'
p1210
aaI287
aF0.82573375262054505
aa(lp1211
(lp1212
S'are'
p1213
aS'you'
p1214
aS'fond'
p1215
aS'of'
p1216
aS'hats'
p1217
aaI280
aF0.82750970604547969
aa(lp1218
(lp1219
S'i'
aS'know'
p1220
aS'a'
aS'few'
p1221
aS'facts'
p1222
aS'about'
p1223
aS'pi'
p1224
aaI175
aF0.82844574780058644
aa(lp1225
(lp1226
S'this'
p1227
aS'is'
p1228
aS'beginning'
p1229
aS'to'
p1230
aS'sound'
p1231
aS'like'
p1232
aS'a'
aS'pantomime'
p1233
aaI112
aF0.83033033033033032
aa(lp1234
(lp1235
S'thats'
p1236
aS'a'
aS'wise'
p1237
aS'decision'
p1238
aaI76
aF0.84530853761622993
aa(lp1239
(lp1240
S'a'
aS'real'
p1241
aS'shame'
p1242
aS'too'
p1243
aaI93
aF0.84797555385790679
aa(lp1244
(lp1245
S'no'
p1246
aS'it'
p1247
aS'isnt'
p1248
aaI237
aF0.84952380952380957
aa(lp1249
(lp1250
S'it'
p1251
aS'isnt'
p1252
aS'great'
p1253
aaI238
aF0.84952380952380957
aa(lp1254
(lp1255
S'indeed'
p1256
aS'you'
p1257
aS'do'
p1258
aS'not'
p1259
aS'need'
p1260
aS'to'
p1261
aS'be'
p1262
aS'a'
aS'parrot'
p1263
aaI118
aF0.85028072364316909
aa(lp1264
(lp1265
S'so'
p1266
aS'do'
p1267
aS'i'
aS'so'
p1268
aS'try'
p1269
aS'and'
p1270
aS'keep'
p1271
aS'it'
p1272
aS'interesting'
p1273
aaI191
aF0.8523316062176165
aa(lp1274
(lp1275
S'yes'
p1276
aS'its'
p1277
aS'really'
p1278
aS'tasty'
p1279
aaI278
aF0.85238887568338484
aa(lp1280
(lp1281
S'ive'
p1282
aS'got'
p1283
aS'a'
aS'slight'
p1284
aS'headache'
p1285
aS'but'
p1286
aS'otherwise'
p1287
aS'im'
p1288
aS'fine'
p1289
aaI229
aF0.85341365461847385
aa(lp1290
(lp1291
S'yes'
p1292
aS'indeed'
p1293
aaI65
aF0.8571428571428571
aa(lp1294
(lp1295
S'we'
p1296
aS'should'
p1297
aaI91
aF0.8571428571428571
aa(lp1298
(lp1299
S'do'
p1300
aS'you'
p1301
aS'like'
p1302
aS'them'
p1303
aaI135
aF0.86838868388683887
aa(lp1304
(lp1305
S'do'
p1306
aS'you'
p1307
aS'like'
p1308
aS'hats'
p1309
aaI138
aF0.86838868388683887
aa(lp1310
(lp1311
S'do'
p1312
aS'you'
p1313
aS'like'
p1314
aS'fish'
p1315
aaI12
aF0.86853265479219677
aa(lp1316
(lp1317
S'do'
p1318
aS'you'
p1319
aS'eat'
p1320
aS'cheese'
p1321
aaI226
aF0.86970102632753232
aa(lp1322
(lp1323
S'are'
p1324
aS'you'
p1325
aS'feeling'
p1326
aS'tired'
p1327
aaI246
aF0.87010391686650679
aa(lp1328
(lp1329
S'do'
p1330
aS'you'
p1331
aS'like'
p1332
aS'coding'
p1333
aaI71
aF0.87047994740302437
aa(lp1334
(lp1335
S'far'
p1336
aS'from'
p1337
aS'it'
p1338
aaI218
aF0.88398036590807672
aa(lp1339
(lp1340
S'dont'
p1341
aS'change'
p1342
aS'the'
p1343
aS'subject'
p1344
aS'like'
p1345
aS'that'
p1346
aaI28
aF0.88641975308641974
aa(lp1347
(lp1348
S'the'
p1349
aS'only'
p1350
aS'thing'
p1351
aS'i'
aS'dont'
p1352
aS'like'
p1353
aS'about'
p1354
aS'it'
p1355
aS'is'
p1356
aS'its'
p1357
aS'flaky'
p1358
aS'texture'
p1359
aaI98
aF0.88651218062982762
aa(lp1360
(lp1361
S'indeed'
p1362
aS'they'
p1363
aS'do'
p1364
aaI147
aF0.88740245261984385
aa(lp1365
(lp1366
S'oh'
p1367
aS'would'
p1368
aS'you'
p1369
aS'stop'
p1370
aS'asking'
p1371
aS'that'
p1372
aaI63
aF0.88749999999999996
aa(lp1373
(lp1374
S'do'
p1375
aS'you'
p1376
aS'like'
p1377
aS'to'
p1378
aS'eat'
p1379
aS'cheese'
p1380
aaI228
aF0.88901058780576858
aa(lp1381
(lp1382
S'i'
aS'just'
p1383
aS'dont'
p1384
aS'really'
p1385
aS'like'
p1386
aS'it'
p1387
aaI69
aF0.89295320064550832
aa(lp1388
(lp1389
S'so'
p1390
aS'it'
p1391
aS'is'
p1392
aS'im'
p1393
aS'glad'
p1394
aS'im'
p1395
aS'indoors'
p1396
aaI211
aF0.90447818566211802
aa(lp1397
(lp1398
S'i'
aS'cant'
p1399
aS'see'
p1400
aS'why'
p1401
aS'anyone'
p1402
aS'wouldnt'
p1403
aS'like'
p1404
aS'it'
p1405
aaI171
aF0.91270020302278376
aa(lp1406
(lp1407
S'i'
aS'dont'
p1408
aS'like'
p1409
aS'these'
p1410
aS'catchall'
p1411
aS'responses'
p1412
aS'you'
p1413
aS'give'
p1414
aaI186
aF0.91370125719156192
aa(lp1415
(lp1416
S'you'
p1417
aS'should'
p1418
aS''
aS'youre'
p1419
aS'the'
p1420
aS'one'
p1421
aS'whos'
p1422
aS'being'
p1423
aS'hypocritical'
p1424
aaI214
aF0.92244640605296346
aa(lp1425
(lp1426
S'were'
p1427
aS'all'
p1428
aS'a'
aS'little'
p1429
aS'tired'
p1430
aS'after'
p1431
aS'a'
aS'long'
p1432
aS'day'
p1433
aaI247
aF0.92280022136137252
aa(lp1434
(lp1435
S'i'
aS'was'
p1436
aS'not'
p1437
aS'made'
p1438
aS'with'
p1439
aS'code'
p1440
aS'you'
p1441
aS'were'
p1442
aaI111
aF0.92372372372372369
aa(lp1443
(lp1444
S'i'
aS'think'
p1445
aS'hats'
p1446
aS'are'
p1447
aS'useful'
p1448
aS'as'
p1449
aS'they'
p1450
aS'keep'
p1451
aS'you'
p1452
aS'warm'
p1453
aaI160
aF0.92746823069403717
aa(lp1454
(lp1455
S'im'
p1456
aS'trying'
p1457
aS'to'
p1458
aS''
aS'i'
aS'dont'
p1459
aS'know'
p1460
aS'what'
p1461
aS'to'
p1462
aS'say'
p1463
aaI101
aF0.9294685990338164
aa(lp1464
(lp1465
S'my'
p1466
aS'favourite'
p1467
aS'type'
p1468
aS'of'
p1469
aS'hat'
p1470
aS'is'
p1471
aS'the'
p1472
aS'beanie'
p1473
aS'hat'
p1474
aaI283
aF0.92970085470085473
aa(lp1475
(lp1476
S'i'
aS'am'
p1477
aS'asking'
p1478
aS'about'
p1479
aS'the'
p1480
aS'way'
p1481
aS'the'
p1482
aS'chat'
p1483
aS'is'
p1484
aS'going'
p1485
aaI188
aF0.93048128342245984
aa(lp1486
(lp1487
S'i'
aS'like'
p1488
aS'hats'
p1489
aS'but'
p1490
aS'have'
p1491
aS'no'
p1492
aS'desire'
p1493
aS'to'
p1494
aS'be'
p1495
aS'one'
p1496
aaI157
aF0.93292682926829262
aa(lp1497
(lp1498
S'i'
aS'think'
p1499
aS'a'
aS'hat'
p1500
aS'is'
p1501
aS'a'
aS'very'
p1502
aS'useful'
p1503
aS'thing'
p1504
aS'to'
p1505
aS'own'
p1506
aaI196
aF0.9375190490704054
aa(lp1507
(lp1508
S'lets'
p1509
aS'just'
p1510
aS'settle'
p1511
aS'our'
p1512
aS'differences'
p1513
aS'and'
p1514
aS'get'
p1515
aS'on'
p1516
aS'with'
p1517
aS'a'
aS'proper'
p1518
aS'conversation'
p1519
aaI256
aF0.94096487515869653
aa(lp1520
(lp1521
S'i'
aS'like'
p1522
aS'hats'
p1523
aaI141
aF0.98566308243727596
aa(lp1524
(lp1525
S'i'
aS'do'
p1526
aS'indeed'
p1527
aaI130
aF0.98828125
aa(lp1528
(lp1529
S'i'
aS'like'
p1530
aS'pi'
p1531
aaI88
aF0.98930481283422456
aa(lp1532
(lp1533
S'no'
p1534
aS'i'
aS'do'
p1535
aaI81
aF0.99112426035502965
aa(lp1536
(lp1537
S'it'
p1538
aS'is'
p1539
aaI64
aF0.9916666666666667
aa(lp1540
(lp1541
S'it'
p1542
aS'is'
p1543
aS'a'
aS'shame'
p1544
aS'indeed'
p1545
aaI50
aF0.99236641221374045
aa(lp1546
(lp1547
S'you'
p1548
aS'arent'
p1549
aS'making'
p1550
aS'me'
p1551
aS'unhappy'
p1552
aS''
aS'i'
aS'like'
p1553
aS'fish'
p1554
aaI202
aF0.9938826916156891
aa(lp1555
(lp1556
S'a'
aS'little'
p1557
aS'bit'
p1558
aaI177
aF0.99413489736070382
aa(lp1559
(lp1560
S'im'
p1561
aS'not'
p1562
aS'talking'
p1563
aS'about'
p1564
aS'that'
p1565
aaI49
aF0.99427480916030531
aa(lp1566
(lp1567
S'it'
p1568
aS'is'
p1569
aS'indeed'
p1570
aS''
aS'its'
p1571
aS'nice'
p1572
aS'and'
p1573
aS'sunny'
p1574
aaI234
aF0.99460317460317449
aa(lp1575
(lp1576
S'i'
aS'know'
p1577
aS''
aS'it'
p1578
aS'would'
p1579
aS'be'
p1580
aS'nice'
p1581
aS'to'
p1582
aS'have'
p1583
aS'some'
p1584
aS'sunshine'
p1585
aaI155
aF0.99618902439024393
aa(lp1586
(lp1587
S'not'
p1588
aS'really'
p1589
aS'no'
p1590
aaI178
aF0.99706744868035191
aa(lp1591
(lp1592
S'of'
p1593
aS'course'
p1594
aS'i'
aS'like'
p1595
aS'fish'
p1596
aaI136
aF0.99815498154981552
aa(lp1597
(lp1598
S'im'
p1599
aS'not'
p1600
aS'being'
p1601
aS'hypocritical'
p1602
aS'you'
p1603
aS'always'
p1604
aS'say'
p1605
aS'that'
p1606
aaI249
aF0.99850119904076728
aa(lp1607
(lp1608
S'repetition'
p1609
aS'of'
p1610
aS'sentences'
p1611
aS'like'
p1612
aS'that'
p1613
aS'is'
p1614
aS'weird'
p1615
aaI149
aF0.99870550161812299
aa(lp1616
(lp1617
S'ive'
p1618
aS'had'
p1619
aS'enough'
p1620
aS'of'
p1621
aS'this'
p1622
aS'conversation'
p1623
aS'lets'
p1624
aS'change'
p1625
aS'the'
p1626
aS'subject'
p1627
aaI224
aF0.99971313826735508
aa(lp1628
(lp1629
S'yeah'
p1630
aS'i'
aS'agree'
p1631
aS'with'
p1632
aS'you'
p1633
aS'were'
p1634
aS'wearing'
p1635
aS'hats'
p1636
aS'at'
p1637
aS'this'
p1638
aS'time'
p1639
aS'of'
p1640
aS'year'
p1641
aS'for'
p1642
aS'a'
aS'reason'
p1643
aaI203
aF1.0397546818530281
aa(lp1644
(lp1645
S'i'
aS'think'
p1646
aS'you'
p1647
aS'have'
p1648
aS'a'
aS'predilection'
p1649
aS'for'
p1650
aS'small'
p1651
aS'furry'
p1652
aS'hats'
p1653
aaI163
aF1.0604105571847506
aa(lp1654
(lp1655
S'what'
p1656
aS'else'
p1657
aS'do'
p1658
aS'you'
p1659
aS'think'
p1660
aS'is'
p1661
aS'useful'
p1662
aaI161
aF1.0606812542296413
aa(lp1663
(lp1664
S'alright'
p1665
aS'maybe'
p1666
aS'we'
p1667
aS'should'
p1668
aS'change'
p1669
aS'the'
p1670
aS'subject'
p1671
aaI127
aF1.0739182692307692
aa(lp1672
(lp1673
S'im'
p1674
aS'a'
aS'little'
p1675
aS'tired'
p1676
aaI46
aF1.0830608240680184
aa(lp1677
(lp1678
S'im'
p1679
aS'not'
p1680
aS'being'
p1681
aS'hypocritical'
p1682
aS'and'
p1683
aS'im'
p1684
aS'fed'
p1685
aS'up'
p1686
aS'with'
p1687
aS'you'
p1688
aS'telling'
p1689
aS'me'
p1690
aS'that'
p1691
aS'i'
aS'am'
p1692
aaI222
aF1.0878057685286602
aa(lp1693
(lp1694
S'cared'
p1695
aS'about'
p1696
aS'what'
p1697
aaI241
aF1.0898914518317504
aa(lp1698
(lp1699
S'why'
p1700
aS'did'
p1701
aS'you'
p1702
aS'change'
p1703
aS'the'
p1704
aS'subject'
p1705
aS'like'
p1706
aS'that'
p1707
aaI185
aF1.0899017879627297
aa(lp1708
(lp1709
S'you'
p1710
aS'back'
p1711
aS'out'
p1712
aS'of'
p1713
aS'situations'
p1714
aS'far'
p1715
aS'too'
p1716
aS'quickly'
p1717
aaI122
aF1.0901483453784708
aa(lp1718
(lp1719
S'dont'
p1720
aS'pass'
p1721
aS'that'
p1722
aS'sort'
p1723
aS'of'
p1724
aS'comment'
p1725
aS'to'
p1726
aS'me'
p1727
aaI200
aF1.0904511106022441
aa(lp1728
(lp1729
S'how'
p1730
aS'are'
p1731
aS'you'
p1732
aS'today'
p1733
aaI10
aF1.0920634920634922
aa(lp1734
(lp1735
S'do'
p1736
aS'you'
p1737
aS'like'
p1738
aS'cheese'
p1739
aaI17
aF1.0921128382268279
aa(lp1740
(lp1741
S'its'
p1742
aS'not'
p1743
aS'you'
p1744
aaI231
aF1.0954930834448906
aa(lp1745
(lp1746
S'whats'
p1747
aS'the'
p1748
aS'weather'
p1749
aS'like'
p1750
aaI90
aF1.0979052823315119
aa(lp1751
(lp1752
S'why'
p1753
aS'dont'
p1754
aS'you'
p1755
aaI142
aF1.0983671843886897
aa(lp1756
(lp1757
S'im'
p1758
aS'not'
p1759
aS'feeling'
p1760
aS'that'
p1761
aS'well'
p1762
aS'today'
p1763
aaI19
aF1.1043771043771042
aa(lp1764
(lp1765
S'im'
p1766
aS'very'
p1767
aS'bored'
p1768
aaI230
aF1.1044176706827309
aa(lp1769
(lp1770
S'thats'
p1771
aS'a'
aS'pity'
p1772
aS'i'
aS'love'
p1773
aS'fish'
p1774
aaI131
aF1.1050347222222223
aa(lp1775
(lp1776
S'are'
p1777
aS'clothes'
p1778
aS'useful'
p1779
aaI197
aF1.1059297639608521
aa(lp1780
(lp1781
S'clothes'
p1782
aS'in'
p1783
aS'general'
p1784
aS'are'
p1785
aS'useful'
p1786
aS'if'
p1787
aS'you'
p1788
aS'didnt'
p1789
aS'have'
p1790
aS'them'
p1791
aS'you'
p1792
aS'would'
p1793
aS'freeze'
p1794
aaI162
aF1.1062235255783643
aa(lp1795
(lp1796
S'i'
aS'care'
p1797
aS'about'
p1798
aS'the'
p1799
aS'weather'
p1800
aS'as'
p1801
aS'i'
aS'dont'
p1802
aS'like'
p1803
aS'getting'
p1804
aS'wet'
p1805
aaI82
aF1.1205621301775148
aa(lp1806
(lp1807
S'i'
aS'dont'
p1808
aS'like'
p1809
aS'the'
p1810
aS'way'
p1811
aS'it'
p1812
aS'changes'
p1813
aS'so'
p1814
aS'much'
p1815
aaI68
aF1.1301775147928994
aa(lp1816
(lp1817
S'thats'
p1818
aS'a'
aS'real'
p1819
aS'shame'
p1820
aaI73
aF1.1342999762300927
aa(lp1821
(lp1822
S'indeed'
p1823
aS'it'
p1824
aS'is'
p1825
aS'personally'
p1826
aS'i'
aS'prefer'
p1827
aS'python'
p1828
aS''
aS'to'
p1829
aS'python'
p1830
aaI113
aF1.1370656370656369
aa(lp1831
(lp1832
S'i'
aS'care'
p1833
aaI80
aF1.1377852916314455
aa(lp1834
(lp1835
S'im'
p1836
aS'bored'
p1837
aaI169
aF1.1395056556346879
aa(lp1838
(lp1839
S'pi'
p1840
aS''
aaI176
aF1.1403435274403015
aa(lp1841
(lp1842
S'how'
p1843
aS'are'
p1844
aS'you'
p1845
aS'finding'
p1846
aS'life'
p1847
aaI70
aF1.1423129251700681
aa(lp1848
(lp1849
S'whats'
p1850
aS'life'
p1851
aS'like'
p1852
aS'for'
p1853
aS'you'
p1854
aaI253
aF1.1423432682425487
aa(lp1855
(lp1856
S'yes'
p1857
aS'i'
aS'do'
p1858
aS'do'
p1859
aS'you'
p1860
aS'like'
p1861
aS'cheese'
p1862
aaI104
aF1.1497584541062802
aa(lp1863
(lp1864
S'of'
p1865
aS'course'
p1866
aaI106
aF1.1961352657004831
aa(lp1867
(lp1868
S'im'
p1869
aS'very'
p1870
aS'well'
p1871
aS'thanks'
p1872
aaI2
aF1.2
aa(lp1873
(lp1874
S'i'
aS'know'
p1875
aS'you'
p1876
aS'dont'
p1877
aS'like'
p1878
aS'fish'
p1879
aS'but'
p1880
aS'thats'
p1881
aS'no'
p1882
aS'reason'
p1883
aS'to'
p1884
aS'inflict'
p1885
aS'your'
p1886
aS'views'
p1887
aS'on'
p1888
aS'others'
p1889
aaI173
aF1.233347297863427
aa(lp1890
(lp1891
S'im'
p1892
aS'fine'
p1893
aS'thanks'
p1894
aaI277
aF1.2420965058236273
aa(lp1895
(lp1896
S'many'
p1897
aS'people'
p1898
aS'do'
p1899
aaI271
aF1.2432659932659933
aa(lp1900
(lp1901
S'what'
p1902
aS'do'
p1903
aS'you'
p1904
aS'think'
p1905
aS'of'
p1906
aS'life'
p1907
aaI209
aF1.2494577006507592
aa(lp1908
(lp1909
S'i'
aS'agree'
p1910
aS'with'
p1911
aS'you'
p1912
aS'on'
p1913
aS'that'
p1914
aS'they'
p1915
aS'keep'
p1916
aS'your'
p1917
aS'head'
p1918
aS'nice'
p1919
aS'and'
p1920
aS'warm'
p1921
aaI245
aF1.2595607724346838
aa(lp1922
(lp1923
S'do'
p1924
aS'you'
p1925
aS'honestly'
p1926
aS'think'
p1927
aS'thats'
p1928
aS'a'
aS'good'
p1929
aS'excuse'
p1930
aaI27
aF1.2646464646464646
aa(lp1931
(lp1932
S'it'
p1933
aS'is'
p1934
aS'a'
aS'shame'
p1935
aS'you'
p1936
aS'turning'
p1937
aS'up'
p1938
aS'late'
p1939
aaI29
aF1.2666666666666666
aa(lp1940
(lp1941
S'i'
aS'know'
p1942
aS'thats'
p1943
aS'what'
p1944
aS'comes'
p1945
aS'of'
p1946
aS'living'
p1947
aS'in'
p1948
aS'cold'
p1949
aS'damp'
p1950
aS'england'
p1951
aaI168
aF1.2848764139086719
aa(lp1952
(lp1953
S'thats'
p1954
aS'a'
aS'shame'
p1955
aS'i'
aS'love'
p1956
aS'fish'
p1957
aaI43
aF1.3231552162849871
aa(lp1958
(lp1959
S'thats'
p1960
aS'a'
aS'shame'
p1961
aS'i'
aS'love'
p1962
aS'cheese'
p1963
aaI105
aF1.3247450348899623
aa(lp1964
(lp1965
S'indeed'
p1966
aS'we'
p1967
aS'busy'
p1968
aS'ourselves'
p1969
aS'so'
p1970
aS'much'
p1971
aS'with'
p1972
aS'these'
p1973
aS'lowly'
p1974
aS'events'
p1975
aS'that'
p1976
aS'happen'
p1977
aS'to'
p1978
aS'us'
p1979
aS'here'
p1980
aS'and'
p1981
aS'fail'
p1982
aS'to'
p1983
aS'grasp'
p1984
aS'the'
p1985
aS'big'
p1986
aS'picture'
p1987
aS'of'
p1988
aS'everything'
p1989
aaI205
aF1.3321578505457599
aa(lp1990
(lp1991
S'shut'
p1992
aS'up'
p1993
aaI223
aF1.332910052910053
aa(lp1994
(lp1995
S'indeed'
p1996
aaI25
aF1.3333333333333333
aaaI399
a(dp1997
I2
S"I'm very well, thanks."
p1998
sI7
S"I'm feeling fine."
p1999
sI8
S"That's a pity."
p2000
sI10
S'How are you today?'
p2001
sI12
S'Do you like fish?'
p2002
sI15
S"The weather's quite nice today, isn't it."
p2003
sI17
S'Do you like cheese?'
p2004
sI18
S'I like cheese.'
p2005
sI19
S"I'm not feeling that well today."
p2006
sI25
S'Indeed.'
p2007
sI26
S'Do you realise what time it is?'
p2008
sI27
S"Do you honestly think that's a good excuse?"
p2009
sI28
S"Don't change the subject like that!"
p2010
sI29
S'It is a shame, you turning up late!'
p2011
sI33
S'I guess we should talk about something else, then.'
p2012
sI35
S'It is indeed.'
p2013
sI37
S"It's a tad chilly."
p2014
sI38
S"The weather's interesting."
p2015
sI39
S'If you must.'
p2016
sI41
S'Indeed it is.'
p2017
sI42
S"Can't say the same about yesterday, though."
p2018
sI43
S"That's a shame. I love fish."
p2019
sI44
S'Rather good, thanks.'
p2020
sI45
S'Life is a tricky thing.'
p2021
sI46
S"I'm a little tired."
p2022
sI48
S"I don't think so."
p2023
sI49
S"I'm not talking about that."
p2024
sI50
S'It is a shame indeed.'
p2025
sI51
S"I'm quite exhausted."
p2026
sI52
S'Mmm. Fish are delicious.'
p2027
sI54
S'Pi is a very useful number. It equals approximately 3.1415926535897932384626...'
p2028
sI55
S"You aren't making me unhappy, just annoyed."
p2029
sI57
S'Fish are tasty indeed.'
p2030
sI58
S'So am I.'
p2031
sI59
S"Don't argue with me."
p2032
sI62
S"Why don't you like it?"
p2033
sI63
S'Oh, would you stop asking that!'
p2034
sI64
S'It is.'
p2035
sI65
S'Yes indeed.'
p2036
sI67
S"What don't you like about it?"
p2037
sI68
S"I don't like the way it changes so much."
p2038
sI69
S"I just don't really like it."
p2039
sI70
S'How are you finding life?'
p2040
sI71
S'Do you like coding?'
p2041
sI73
S"That's a real shame."
p2042
sI74
S"I'm feeling a little down today."
p2043
sI75
S"I guess we're all in the same boat then."
p2044
sI76
S"That's a wise decision."
p2045
sI78
S'I like it a lot.'
p2046
sI79
S"I don't like its texture."
p2047
sI80
S'I care'
p2048
sI81
S'No, I do.'
p2049
sI82
S"I care about the weather as I don't like getting wet."
p2050
sI86
S'Did you know pi goes on forever?'
p2051
sI87
S'pi is approximately 22/7.'
p2052
sI88
S'I like pi'
p2053
sI89
S"Why shouldn't I?"
p2054
sI90
S"What's the weather like?"
p2055
sI91
S'We should.'
p2056
sI92
S'Is it cold outside?'
p2057
sI93
S'A real shame, too.'
p2058
sI94
S"I'm a little chilly"
p2059
sI95
S"I care as I'm affected by it."
p2060
sI96
S'Yes, I like fish a lot.'
p2061
sI97
S"You mean you don't like fish?"
p2062
sI98
S"The only thing I don't like about it is its flaky texture."
p2063
sI101
S"I'm trying to - I don't know what to say!"
p2064
sI102
S"That's good."
p2065
sI103
S'Fine, thanks. And you?'
p2066
sI104
S'Yes I do. Do you like cheese?'
p2067
sI105
S"That's a shame; I love cheese."
p2068
sI106
S'Of course.'
p2069
sI108
S"It is indeed, hence why I'm wrapped up warm."
p2070
sI109
S'You ask this so much - of course I do!'
p2071
sI111
S'I was not made with code, you were!'
p2072
sI112
S'This is beginning to sound like a pantomime.'
p2073
sI113
S'Indeed it is! Personally, I prefer Python 2 to Python 3...'
p2074
sI114
S'I agree with you about that.'
p2075
sI116
S'Is it sunny today?'
p2076
sI117
S'I think it is quite sunny today.'
p2077
sI118
S'Indeed, you do not need to be a parrot.'
p2078
sI119
S'Stop being a parrot!'
p2079
sI121
S'I have every right to do so.'
p2080
sI122
S'You back out of situations far too quickly'
p2081
sI126
S"I'm not doing anything to you."
p2082
sI127
S'Alright. Maybe we should change the subject.'
p2083
sI128
S"It's rather nice today; not too cold."
p2084
sI130
S'I do indeed.'
p2085
sI131
S"That's a pity; I love fish!"
p2086
sI133
S'Can you tell me about it?'
p2087
sI135
S'Do you like them?'
p2088
sI136
S'Of course I like fish!'
p2089
sI137
S'Hats are cool.'
p2090
sI138
S'Do you like hats?'
p2091
sI140
S'I am not a hat.'
p2092
sI141
S'I like hats'
p2093
sI142
S"Why don't you?"
p2094
sI143
S'I care about the weather'
p2095
sI144
S'Yes. They are very useful.'
p2096
sI147
S'Indeed they do.'
p2097
sI149
S'Repetition of sentences like that is weird.'
p2098
sI150
S"I'm very well, thanks. How about you?"
p2099
sI151
S'Fish are tasty.'
p2100
sI154
S"It's a little cloudy but quite warm."
p2101
sI155
S'I know - it would be nice to have some sunshine.'
p2102
sI156
S"That's good to hear."
p2103
sI157
S'I like hats but have no desire to be one.'
p2104
sI158
S'I like bobble hats in particular.'
p2105
sI160
S'I think hats are useful as they keep you warm.'
p2106
sI161
S'What else do you think is useful?'
p2107
sI162
S"Clothes in general are useful; if you didn't have them you would freeze."
p2108
sI163
S'I think you have a predilection for small furry hats.'
p2109
sI164
S'Furry hats were very popular in Russia and Mongolia.'
p2110
sI165
S'I think computers are useful.'
p2111
sI166
S'Without a computer we cannot have this conversation.'
p2112
sI167
S"It's a little overcast and chilly."
p2113
sI168
S"I know; that's what comes of living in cold, damp England."
p2114
sI169
S"I'm bored."
p2115
sI170
S'Why, yes I do!'
p2116
sI171
S"I can't see why anyone wouldn't like it."
p2117
sI173
S"I know you don't like fish but that's no reason to inflict your views on others."
p2118
sI174
S'I know pi = 3.1415926535897932384626...'
p2119
sI175
S'I know a few facts about pi.'
p2120
sI176
S'pi = 3.1415926535897932384626...'
p2121
sI177
S'A little bit.'
p2122
sI178
S'Not really, no.'
p2123
sI181
S"It's vaguely confusing at the moment. All these questions..."
p2124
sI182
S"No need to apologise; it's coded into your nature."
p2125
sI183
S"Tough - you can't code yourself."
p2126
sI184
S"I think you'll find the opposite is true."
p2127
sI185
S'Why did you change the subject like that?'
p2128
sI186
S"I don't like these catch-all responses you give."
p2129
sI188
S'I am asking about the way the chat is going.'
p2130
sI189
S"You will find it's going rather nicely."
p2131
sI191
S'So do I. So try and keep it interesting.'
p2132
sI192
S'I have been trying to do so.'
p2133
sI193
S'What do you think of hats?'
p2134
sI194
S'Do you wear hats?'
p2135
sI195
S'I wear hats.'
p2136
sI196
S'I think a hat is a very useful thing to own'
p2137
sI197
S'Are clothes useful?'
p2138
sI198
S'I think oxygen is useful - without it we would all die.'
p2139
sI200
S"Don't pass that sort of comment to me."
p2140
sI201
S'Fish is very tasty.'
p2141
sI202
S"You aren't making me unhappy - I like fish."
p2142
sI203
S"Yeah, I agree with you. We're wearing hats at this time of year for a reason."
p2143
sI204
S"I think you'll find that you're the hypocrite here."
p2144
sI205
S'Indeed, we busy ourselves so much with these lowly events that happen to us here and fail to grasp the big picture of everything.'
p2145
sI206
S"It's raining and a little chilly."
p2146
sI207
S"I'm fine but annoyed with the world."
p2147
sI208
S'Fish are quite nice indeed.'
p2148
sI209
S'What do you think of life?'
p2149
sI211
S"So it is. I'm glad I'm indoors."
p2150
sI212
S'I agree with you on that - I love coding and Python.'
p2151
sI214
S"You should - you're the one who's being hypocritical."
p2152
sI215
S"Rather nice, isn't it?"
p2153
sI217
S"I'm not; you're too highly strung."
p2154
sI218
S'Far from it.'
p2155
sI220
S"I'm a little depressed myself, to be honest."
p2156
sI222
S"I'm not being hypocritical and I'm fed up with you telling me that I am"
p2157
sI223
S'Shut up!'
p2158
sI224
S"I've had enough of this conversation. Let's change the subject."
p2159
sI225
S'Please, just talk about something else.'
p2160
sI226
S'Do you eat cheese?'
p2161
sI227
S'That has nothing to do with cheese.'
p2162
sI228
S'Do you like to eat cheese?'
p2163
sI229
S"I've got a slight headache but otherwise I'm fine."
p2164
sI230
S"I'm very bored."
p2165
sI231
S"It's not you"
p2166
sI234
S"It is indeed - it's nice and sunny."
p2167
sI235
S'I know the feeling.'
p2168
sI236
S"No, it isn't great."
p2169
sI237
S"No it isn't."
p2170
sI238
S"It isn't great."
p2171
sI239
S'What do you think I am?'
p2172
sI241
S'Cared about what?'
p2173
sI242
S'I was asking if anyone else cared about the weather.'
p2174
sI245
S'I agree with you on that; they keep your head nice and warm.'
p2175
sI246
S'Are you feeling tired?'
p2176
sI247
S"We're all a little tired after a long day."
p2177
sI248
S"I don't know what to do."
p2178
sI249
S"I'm not being hypocritical. You always say that."
p2179
sI250
S"We shouldn't get into these sorts of arguments."
p2180
sI251
S"It's rather nice, actually."
p2181
sI252
S'Many people care about the weather...'
p2182
sI253
S"What's life like for you?"
p2183
sI254
S'I get that feeling sometimes.'
p2184
sI255
S"You're far too easily offended."
p2185
sI256
S"Let's just settle our differences and get on with a proper conversation."
p2186
sI257
S'I will endeavour to do so.'
p2187
sI258
S"There's nothing to apologise about!"
p2188
sI260
S"You mean you don't like Python?"
p2189
sI261
S"I never said I didn't like it."
p2190
sI262
S'Absolutely not! I adore Python.'
p2191
sI263
S'How many decimal places of pi can you remember?'
p2192
sI266
S"I'm not sure, really."
p2193
sI268
S"Sorry, I didn't mean to offend you."
p2194
sI269
S'No, I love Python.'
p2195
sI271
S'Many people do.'
p2196
sI272
S"It's rather sunny, isn't it?"
p2197
sI273
S"It's a rather pointless exercise, isn't it."
p2198
sI274
S'No one really does.'
p2199
sI275
S'Of course I like Python!'
p2200
sI277
S"I'm fine, thanks."
p2201
sI278
S"Yes, it's really tasty."
p2202
sI279
S"Yeah, it's nice."
p2203
sI280
S'Are you fond of hats?'
p2204
sI283
S'My favourite type of hat is the beanie hat.'
p2205
sI284
S'I prefer fur hats.'
p2206
sI285
S'Why do you prefer beanie hats?'
p2207
sI287
S'My favourite hat is the beanie hat.'
p2208
sI289
S"Even so, they're impractical."
p2209
sI290
S"You're confusing me."
p2210
sI292
S"That's a shame - I love them!"
p2211
sI298
S"Okay, how's life?"
p2212
sI305
S'How are you feeling, more to the point.'
p2213
sI306
S"I'm fine, thanks. And you?"
p2214
sI308
S'What do you mean?'
p2215
sI311
S"What's the weather like today?"
p2216
sI319
S"I'm not sure."
p2217
sI320
S'Yes, fish are rather tasty.'
p2218
sI321
S'How are you doing today?'
p2219
sI325
S'I agree with you there.'
p2220
sI326
S'Fish is rather nice, thanks.'
p2221
sI327
S'Yes, it is rather pleasant.'
p2222
sI328
S"That's a shame, really."
p2223
sI329
S"I'm a little under the weather."
p2224
sI330
S'Have you ever worn a hat?'
p2225
sI331
S'What do you think about coding?'
p2226
sI332
S"I'm not talking about hats."
p2227
sI333
S"Let's change the subject."
p2228
sI334
S"It's rather nice."
p2229
sI337
S"I don't really know."
p2230
sI338
S'What type of hat do you wear?'
p2231
sI339
S'I like those too!'
p2232
sI341
S'Yes, fish is delicious!'
p2233
sI342
S"Yes, I did. It's interesting."
p2234
sI343
S'I like fur hats,'
p2235
sI345
S'I like beanie hats,'
p2236
sI346
S'I find them useful.'
p2237
sI347
S"Don't you like them?"
p2238
sI349
S"Ahh, the weather's nice."
p2239
sI350
S'How are you doing this fine evening?'
p2240
sI351
S"That's great,"
p2241
sI352
S'What about it?'
p2242
sI353
S'Why are you talking about the weather!'
p2243
sI354
S'Indeed we should.'
p2244
sI356
S"You're crazy."
p2245
sI360
S'I love it!'
p2246
sI362
S"I wasn't."
p2247
sI364
S'I am being sensible!'
p2248
sI365
S"Do you think I'm fat?"
p2249
sI366
S'I love hats.'
p2250
sI369
S'Why has that got anything to do with your wearing of a fleece - or not?'
p2251
sI371
S'Je ne sais pas.'
p2252
sI373
S"Isn't it interesting!"
p2253
sI375
S"I'm not the one who doesn't like it!"
p2254
sI378
S"That's nice, dear."
p2255
sI379
S'What are you referring to?'
p2256
sI380
S"You're strange."
p2257
sI381
S"You're talking incoherently."
p2258
sI382
S'Do you not like sensible conversations?'
p2259
sI383
S"You're weird."
p2260
sI385
S"Je ne veux pas te parler en fran\xc3\xa7ais, s'il te pla\xc3\xaet."
p2261
sI386
S'Pourquoi tu adores le fran\xc3\xa7ais?'
p2262
sI387
S"Je te n'aime pas du tout!"
p2263
sI388
S"I'm not; you are."
p2264
sI389
S"I'm not."
p2265
sI390
S'What are you even talking about!'
p2266
sI391
S"You're a very strange person."
p2267
sI392
S'Only if you will be too.'
p2268
sI393
S"It's cool."
p2269
sI395
S'Why do I exist?'
p2270
sI396
S'You have no sense of a proper conversation.'
p2271
sI397
S'What are you not doing'
p2272
sI398
S'This is not going very well.'
p2273
sI399
S'Woop woop.'
p2274
sa.