(lp1
(lp2
(lp3
S'i'
aI4
aa(lp4
S'hate'
p5
aI2
aa(lp6
S'light'
p7
aI1
aa(lp8
S'where'
p9
aI1
aa(lp10
S'are'
p11
aI2
aa(lp12
S'you'
p13
aI4
aa(lp14
S'do'
p15
aI2
aa(lp16
S'like'
p17
aI1
aa(lp18
S'fish'
p19
aI1
aa(lp20
S'the'
p21
aI8
aa(lp22
S'world'
p23
aI4
aa(lp24
S'love'
p25
aI1
aa(lp26
S'hi'
p27
aI1
aa(lp28
S'hello'
p29
aI1
aa(lp30
S'how'
p31
aI1
aa(lp32
S'doing'
p33
aI2
aa(lp34
S'today'
p35
aI1
aa(lp36
S'not'
p37
aI2
aa(lp38
S'that'
p39
aI1
aa(lp40
S'great'
p41
aI1
aa(lp42
S'why'
p43
aI4
aa(lp44
S'quit'
p45
aI1
aa(lp46
S'goodbye'
p47
aI1
aa(lp48
S'is'
p49
aI1
aa(lp50
S'this'
p51
aI3
aa(lp52
S'to'
p53
aI2
aa(lp54
S'me'
p55
aI1
aa(lp56
S'can'
p57
aI1
aa(lp58
S'explode'
p59
aI1
aa(lp60
S'lights'
p61
aI2
aa(lp62
S'kill'
p63
aI1
aa(lp64
S'turn'
p65
aI2
aa(lp66
S'wheel'
p67
aI1
aa(lp68
S'does'
p69
aI1
aa(lp70
S'am'
p71
aI1
aa(lp72
S'condemned'
p73
aI1
aaa.