(lp1
(lp2
(lp3
S'please'
p4
aI6
aa(lp5
S'could'
p6
aI2
aa(lp7
S'you'
p8
aI4
aa(lp9
S'turn'
p10
aI6
aa(lp11
S'on'
p12
aI9
aa(lp13
S'the'
p14
aI12
aa(lp15
S'lights'
p16
aI13
aa(lp17
S'can'
p18
aI4
aa(lp19
S'switch'
p20
aI6
aa(lp21
S'off'
p22
aI5
aa(lp23
S'for'
p24
aI3
aa(lp25
S'me'
p26
aI3
aa(lp27
S'i'
aI1
aa(lp28
S'have'
p29
aI2
aa(lp30
S'some'
p31
aI3
aa(lp32
S'light'
p33
aI4
aa(lp34
S'dear'
p35
aI1
aa(lp36
S'id'
p37
aI1
aa(lp38
S'like'
p39
aI1
aa(lp40
S'we'
p41
aI1
aaa.