(lp1
(lp2
(lp3
(lp4
S'hello'
p5
aa(lp6
S'hi'
p7
aaI0
aa(lp8
(lp9
g7
aa(lp10
g5
aaI1
aa(lp11
(lp12
S'how'
p13
aS'are'
p14
aS'you'
p15
aa(lp16
S'im'
p17
aS'very'
p18
aS'well'
p19
aS'thanks'
p20
aaI2
aa(lp21
(lp22
S'how'
p23
aS'are'
p24
aS'you'
p25
aS'feeling'
p26
aS'today'
p27
aa(lp28
S'not'
p29
aS'that'
p30
aS'great'
p31
aaI3
aa(lp32
g28
a(lp33
S'thats'
p34
aS'a'
aS'shame'
p35
aaI4
aa(lp36
g33
a(lp37
S'how'
p38
aS'are'
p39
aS'you'
p40
aaI5
aa(lp41
(lp42
S'how'
p43
aS'are'
p44
aS'you'
p45
aS'feeling'
p46
aa(lp47
S'im'
p48
aS'feeling'
p49
aS'fine'
p50
aaI6
aa(lp51
(lp52
S'same'
p53
aS'for'
p54
aS'me'
p55
aa(lp56
S'do'
p57
aS'you'
p58
aS'like'
p59
aS'fish'
p60
aaI7
aa(lp61
(lp62
S'im'
p63
aS'fine'
p64
aS'thanks'
p65
aS'for'
p66
aS'asking'
p67
aa(lp68
S'do'
p69
aS'you'
p70
aS'like'
p71
aS'fish'
p72
aaI8
aa(lp73
(lp74
S'same'
p75
aS'here'
p76
aa(lp77
S'the'
p78
aS'weathers'
p79
aS'quite'
p80
aS'nice'
p81
aS'today'
p82
aS'isnt'
p83
aS'it'
p84
aaI9
aa(lp85
(lp86
S'me'
p87
aS'neither'
p88
aa(lp89
S'do'
p90
aS'you'
p91
aS'like'
p92
aS'cheese'
p93
aaI10
aa(lp94
(lp95
S'im'
p96
aS'feeling'
p97
aS'a'
aS'little'
p98
aS'down'
p99
aa(lp100
S'thats'
p101
aS'a'
aS'pity'
p102
aaI11
aa(lp103
(lp104
S'i'
aS'like'
p105
aS'cheese'
p106
aS'do'
p107
aS'you'
p108
aa(lp109
S'of'
p110
aS'course'
p111
aS'not'
p112
aaI12
aa(lp113
(lp114
S'yes'
p115
aS'its'
p116
aS'wonderful'
p117
aa(lp118
S'i'
aS'dont'
p119
aS'like'
p120
aS'it'
p121
aS'though'
p122
aaI13
aa(lp123
g109
a(lp124
S'indeed'
p125
aaI14
aa(lp126
(lp127
S'its'
p128
aS'rather'
p129
aS'chilly'
p130
aS'dont'
p131
aS'you'
p132
aS'think'
p133
aa(lp134
S'who'
p135
aS'cares'
p136
aS'about'
p137
aS'the'
p138
aS'weather'
p139
aaI15
aa(lp140
(lp141
S'im'
p142
aS'not'
p143
aS'very'
p144
aS'happy'
p145
aS'at'
p146
aS'all'
p147
aa(lp148
S'sorry'
p149
aS'for'
p150
aS'making'
p151
aS'you'
p152
aS'unhappy'
p153
aaI16
aa(lp154
g134
a(lp155
S'i'
aS'guess'
p156
aS'we'
p157
aS'should'
p158
aS'talk'
p159
aS'about'
p160
aS'something'
p161
aS'else'
p162
aS'then'
p163
aaI17
aa(lp164
(lp165
S'sorry'
p166
aS'for'
p167
aS'making'
p168
aS'you'
p169
aS'unhappy'
p170
aa(lp171
S'its'
p172
aS'a'
aS'tad'
p173
aS'chilly'
p174
aaI18
aa(lp175
(lp176
S'nice'
p177
aS'day'
p178
aS'isnt'
p179
aS'it'
p180
aa(lp181
S'indeed'
p182
aS'it'
p183
aS'is'
p184
aaI19
aa(lp185
(lp186
S'same'
p187
aS'with'
p188
aS'me'
p189
aa(lp190
S'pi'
p191
aS'is'
p192
aS'a'
aS'very'
p193
aS'useful'
p194
aS'number'
p195
aS'it'
p196
aS'equals'
p197
aS'approximately'
p198
aaI20
aa(lp199
(lp200
S'glad'
p201
aS'to'
p202
aS'hear'
p203
aS'it'
p204
aa(lp205
S'python'
p206
aS'is'
p207
aS'a'
aS'wonderful'
p208
aS'language'
p209
aS'to'
p210
aS'code'
p211
aS'in'
p212
aS''
aS'i'
aS'was'
p213
aS'coded'
p214
aS'in'
p215
aS'python'
p216
aaI21
aa(lp217
(lp218
S'i'
aS'dont'
p219
aS'like'
p220
aS'it'
p221
aS'though'
p222
aa(lp223
S'what'
p224
aS'dont'
p225
aS'you'
p226
aS'like'
p227
aS'about'
p228
aS'it'
p229
aaI22
aa(lp230
(lp231
S'bye'
p232
aa(lp233
S'dont'
p234
aS'say'
p235
aS'goodbye'
p236
aS'so'
p237
aS'soon'
p238
aaI23
aa(lp239
(lp240
S'good'
p241
aS'idea'
p242
aa(lp243
S'did'
p244
aS'you'
p245
aS'know'
p246
aS'pi'
p247
aS'goes'
p248
aS'on'
p249
aS'forever'
p250
aaI24
aa(lp251
g233
a(lp252
S'i'
aS'wasnt'
p253
aS'going'
p254
aS'to'
p255
aaI25
aa(lp256
(lp257
S'stop'
p258
aS'being'
p259
aS'so'
p260
aS'repetitive'
p261
aa(lp262
S'im'
p263
aS'trying'
p264
aS'to'
p265
aS''
aS'i'
aS'dont'
p266
aS'know'
p267
aS'what'
p268
aS'to'
p269
aS'say'
p270
aaI26
aa(lp271
g252
a(lp272
S'sorry'
p273
aaI27
aa(lp274
(lp275
S'why'
p276
aS'not'
p277
aS'you'
p278
aS'were'
p279
aS'made'
p280
aS'with'
p281
aS'code'
p282
aa(lp283
S'i'
aS'was'
p284
aS'not'
p285
aS'made'
p286
aS'with'
p287
aS'code'
p288
aS'you'
p289
aS'were'
p290
aaI28
aa(lp291
(lp292
S'maybe'
p293
aS'we'
p294
aS'should'
p295
aS'change'
p296
aS'the'
p297
aS'subject'
p298
aa(lp299
S'whats'
p300
aS'the'
p301
aS'weather'
p302
aS'like'
p303
aaI29
aa(lp304
(lp305
S'stop'
p306
aS'questioning'
p307
aS'your'
p308
aS'nature'
p309
aa(lp310
S'i'
aS'have'
p311
aS'every'
p312
aS'right'
p313
aS'to'
p314
aS'do'
p315
aS'so'
p316
aaI30
aa(lp317
(lp318
S'im'
p319
aS'a'
aS'little'
p320
aS'fed'
p321
aS'up'
p322
aS'with'
p323
aS'things'
p324
aa(lp325
S'i'
aS'would'
p326
aS'guess'
p327
aS'you'
p328
aS'are'
p329
aaI31
aa(lp330
(lp331
S'please'
p332
aS'stop'
p333
aS'doing'
p334
aS'this'
p335
aa(lp336
S'im'
p337
aS'not'
p338
aS'doing'
p339
aS'anything'
p340
aS'to'
p341
aS'you'
p342
aaI32
aa(lp343
(lp344
S'do'
p345
aS'you'
p346
aS'know'
p347
aS'about'
p348
aS'pi'
p349
aa(lp350
S'do'
p351
aS'you'
p352
aS'know'
p353
aS'about'
p354
aS'pi'
p355
aaI33
aa(lp356
(lp357
S'thats'
p358
aS'nice'
p359
aS'to'
p360
aS'hear'
p361
aa(lp362
S'do'
p363
aS'you'
p364
aS'like'
p365
aS'them'
p366
aaI34
aa(lp367
(lp368
S'i'
aS'would'
p369
aS'guess'
p370
aS'you'
p371
aS'are'
p372
aa(lp373
S'i'
aS'am'
p374
aS'not'
p375
aS'a'
aS'hat'
p376
aaI35
aa(lp377
(lp378
S'have'
p379
aS'you'
p380
aS'ever'
p381
aS'worn'
p382
aS'hats'
p383
aa(lp384
S'yes'
p385
aS'they'
p386
aS'are'
p387
aS'very'
p388
aS'useful'
p389
aaI36
aa(lp390
(lp391
S'i'
aS'believe'
p392
aS'many'
p393
aS'people'
p394
aS'do'
p395
aa(lp396
S'thats'
p397
aS'just'
p398
aS'weird'
p399
aaI37
aa(lp400
(lp401
S'why'
p402
aS'they'
p403
aS'keep'
p404
aS'your'
p405
aS'head'
p406
aS'warm'
p407
aa(lp408
S'indeed'
p409
aS'they'
p410
aS'do'
p411
aaI38
aa(lp412
g396
a(lp413
S'repetition'
p414
aS'of'
p415
aS'sentences'
p416
aS'like'
p417
aS'that'
p418
aS'is'
p419
aS'weird'
p420
aaI39
aa(lp421
(lp422
S'so'
p423
aS'i'
aS'guess'
p424
aS'they'
p425
aS'are'
p426
aS'useful'
p427
aa(lp428
S'what'
p429
aS'do'
p430
aS'you'
p431
aS'think'
p432
aS'is'
p433
aS'useful'
p434
aaI40
aa(lp435
(lp436
S'whats'
p437
aS'the'
p438
aS'weather'
p439
aS'outside'
p440
aS'like'
p441
aa(lp442
S'its'
p443
aS'a'
aS'little'
p444
aS'cloudy'
p445
aS'but'
p446
aS'quite'
p447
aS'warm'
p448
aaI41
aa(lp449
g428
a(lp450
S'i'
aS'think'
p451
aS'hats'
p452
aS'are'
p453
aS'useful'
p454
aS'as'
p455
aS'they'
p456
aS'keep'
p457
aS'you'
p458
aS'warm'
p459
aaI42
aa(lp460
(lp461
S'whats'
p462
aS'so'
p463
aS'bad'
p464
aS'about'
p465
aS'them'
p466
aa(lp467
S'what'
p468
aS'are'
p469
aS'you'
p470
aS'asking'
p471
aS'about'
p472
aaI43
aa(lp473
(lp474
S'hows'
p475
aS'life'
p476
aa(lp477
S'its'
p478
aS'vaguely'
p479
aS'confusing'
p480
aS'at'
p481
aS'the'
p482
aS'moment'
p483
aS'all'
p484
aS'these'
p485
aS'questions'
p486
aaI44
aa(lp487
g467
a(lp488
S'i'
aS'am'
p489
aS'asking'
p490
aS'about'
p491
aS'the'
p492
aS'way'
p493
aS'the'
p494
aS'chat'
p495
aS'is'
p496
aS'going'
p497
aaI45
aa(lp498
(lp499
S'i'
aS'want'
p500
aS'an'
p501
aS'interesting'
p502
aS'conversation'
p503
aa(lp504
S'so'
p505
aS'do'
p506
aS'i'
aS'so'
p507
aS'try'
p508
aS'and'
p509
aS'keep'
p510
aS'it'
p511
aS'interesting'
p512
aaI46
aa(lp513
(lp514
S'its'
p515
aS'ok'
p516
aS'were'
p517
aS'all'
p518
aS'inadvertently'
p519
aS'rude'
p520
aS'sometimes'
p521
aa(lp522
S'dont'
p523
aS'pass'
p524
aS'that'
p525
aS'sort'
p526
aS'of'
p527
aS'comment'
p528
aS'to'
p529
aS'me'
p530
aaI47
aa(lp531
(lp532
S'its'
p533
aS'beginning'
p534
aS'to'
p535
aS'rain'
p536
aS'now'
p537
aa(lp538
S'so'
p539
aS'it'
p540
aS'is'
p541
aS'im'
p542
aS'glad'
p543
aS'im'
p544
aS'indoors'
p545
aaI48
aa(lp546
(lp547
S'i'
aS'know'
p548
aS'what'
p549
aS'it'
p550
aS'feels'
p551
aS'like'
p552
aa(lp553
S'you'
p554
aS'should'
p555
aS''
aS'youre'
p556
aS'the'
p557
aS'one'
p558
aS'whos'
p559
aS'being'
p560
aS'hypocritical'
p561
aaI49
aa(lp562
(lp563
S'youre'
p564
aS'being'
p565
aS'hypocritical'
p566
aS'again'
p567
aa(lp568
S'im'
p569
aS'not'
p570
aS'youre'
p571
aS'too'
p572
aS'highly'
p573
aS'strung'
p574
aaI50
aa(lp575
(lp576
S'i'
aS'do'
p577
aS'hence'
p578
aS'why'
p579
aS'i'
aS'asked'
p580
aa(lp581
S'so'
p582
aS'you'
p583
aS'were'
p584
aS'asking'
p585
aS'whether'
p586
aS'anyone'
p587
aS'else'
p588
aS'cared'
p589
aaI51
aa(lp590
(lp591
S'the'
p592
aS'weathers'
p593
aS'very'
p594
aS'nice'
p595
aS'today'
p596
aa(lp597
S'it'
p598
aS'is'
p599
aS'indeed'
p600
aS''
aS'its'
p601
aS'nice'
p602
aS'and'
p603
aS'sunny'
p604
aaI52
aa(lp605
g581
a(lp606
S'cared'
p607
aS'about'
p608
aS'what'
p609
aaI53
aa(lp610
(lp611
S'hats'
p612
aS'are'
p613
aS'of'
p614
aS'course'
p615
aS'very'
p616
aS'useful'
p617
aS'things'
p618
aa(lp619
S'i'
aS'agree'
p620
aS'with'
p621
aS'you'
p622
aS'on'
p623
aS'that'
p624
aS'they'
p625
aS'keep'
p626
aS'your'
p627
aS'head'
p628
aS'nice'
p629
aS'and'
p630
aS'warm'
p631
aaI54
aaa(dp632
I0
(lp633
S'Hello'
p634
aS'Hi'
p635
asI1
(lp636
g635
ag634
asI2
(lp637
S'How are you?'
p638
aS"I'm very well, thanks."
p639
asI3
(lp640
S'How are you feeling today?'
p641
aS'Not that great.'
p642
asI4
(lp643
g642
aS"That's a shame."
p644
asI5
(lp645
g644
aS'How are you?'
p646
asI6
(lp647
S'How are you feeling?'
p648
aS"I'm feeling fine."
p649
asI7
(lp650
S'Same for me.'
p651
aS'Do you like fish?'
p652
asI8
(lp653
S"I'm fine, thanks for asking."
p654
aS'Do you like fish?'
p655
asI9
(lp656
S'Same here.'
p657
aS"The weather's quite nice today, isn't it."
p658
asI10
(lp659
S'Me neither.'
p660
aS'Do you like cheese?'
p661
asI11
(lp662
S"I'm feeling a little down."
p663
aS"That's a pity."
p664
asI12
(lp665
S'I like cheese; do you?'
p666
aS'Of course not.'
p667
asI13
(lp668
S"Yes, it's wonderful."
p669
aS"I don't like it, though."
p670
asI14
(lp671
g667
aS'Indeed.'
p672
asI15
(lp673
S"It's rather chilly, don't you think?"
p674
aS'Who cares about the weather?'
p675
asI16
(lp676
S"I'm not very happy at all."
p677
aS'Sorry for making you unhappy.'
p678
asI17
(lp679
g675
aS'I guess we should talk about something else, then.'
p680
asI18
(lp681
S'Sorry for making you unhappy.'
p682
aS"It's a tad chilly."
p683
asI19
(lp684
S"Nice day, isn't it?"
p685
aS'Indeed it is.'
p686
asI20
(lp687
S'Same with me.'
p688
aS'Pi is a very useful number. It equals approximately 3.1415926535897932384626...'
p689
asI21
(lp690
S'Glad to hear it.'
p691
aS'Python is a wonderful language to code in - I was coded in Python.'
p692
asI22
(lp693
S"I don't like it, though."
p694
aS"What don't you like about it?"
p695
asI23
(lp696
S'Bye'
p697
aS"Don't say goodbye so soon!"
p698
asI24
(lp699
S'Good idea.'
p700
aS'Did you know pi goes on forever?'
p701
asI25
(lp702
g698
aS"I wasn't going to..."
p703
asI26
(lp704
S'Stop being so repetitive!'
p705
aS"I'm trying to - I don't know what to say!"
p706
asI27
(lp707
g703
aS'Sorry'
p708
asI28
(lp709
S'Why not? You were made with code!'
p710
aS'I was not made with code, you were!'
p711
asI29
(lp712
S'Maybe we should change the subject.'
p713
aS"What's the weather like?"
p714
asI30
(lp715
S'Stop questioning your nature.'
p716
aS'I have every right to do so.'
p717
asI31
(lp718
S"I'm a little fed up with things."
p719
aS'I would guess you are!'
p720
asI32
(lp721
S'Please stop doing this!'
p722
aS"I'm not doing anything to you."
p723
asI33
(lp724
S'Do you know about pi?'
p725
aS'Do you know about pi?'
p726
asI34
(lp727
S"That's nice to hear"
p728
aS'Do you like them?'
p729
asI35
(lp730
S'I would guess you are!'
p731
aS'I am not a hat.'
p732
asI36
(lp733
S'Have you ever worn hats?'
p734
aS'Yes. They are very useful.'
p735
asI37
(lp736
S'I believe many people do.'
p737
aS"That's just weird."
p738
asI38
(lp739
S'Why? They keep your head warm.'
p740
aS'Indeed they do.'
p741
asI39
(lp742
g738
aS'Repetition of sentences like that is weird.'
p743
asI40
(lp744
S'So I guess they are useful.'
p745
aS'What do you think is useful?'
p746
asI41
(lp747
S"What's the weather outside like?"
p748
aS"It's a little cloudy but quite warm."
p749
asI42
(lp750
g746
aS'I think hats are useful as they keep you warm.'
p751
asI43
(lp752
S"What's so bad about them?"
p753
aS'What are you asking about?'
p754
asI44
(lp755
S"How's life?"
p756
aS"It's vaguely confusing at the moment. All these questions..."
p757
asI45
(lp758
g754
aS'I am asking about the way the chat is going.'
p759
asI46
(lp760
S'I want an interesting conversation.'
p761
aS'So do I. So try and keep it interesting.'
p762
asI47
(lp763
S"It's OK; we're all inadvertently rude sometimes."
p764
aS"Don't pass that sort of comment to me."
p765
asI48
(lp766
S"It's beginning to rain now."
p767
aS"So it is. I'm glad I'm indoors."
p768
asI49
(lp769
S'I know what it feels like.'
p770
aS"You should - you're the one who's being hypocritical."
p771
asI50
(lp772
S"You're being hypocritical again."
p773
aS"I'm not; you're too highly strung."
p774
asI51
(lp775
S'I do, hence why I asked.'
p776
aS'So you were asking whether anyone else cared.'
p777
asI52
(lp778
S"The weather's very nice today."
p779
aS"It is indeed - it's nice and sunny."
p780
asI53
(lp781
g777
aS'Cared about what?'
p782
asI54
(lp783
S'Hats are, of course, very useful things.'
p784
aS'I agree with you on that; they keep your head nice and warm.'
p785
asaI54
a.