(lp1
(lp2
(lp3
(lp4
S'hello'
p5
aa(lp6
S'hi'
p7
aaI0
aa(lp8
(lp9
g7
aa(lp10
g5
aaI1
aa(lp11
(lp12
(lp13
S'how'
p14
aS'are'
p15
aS'you'
p16
aaI1
aI0
aa(lp17
S'im'
p18
aS'fine'
p19
aS'thanks'
p20
aS'and'
p21
aS'you'
p22
aaI2
aa(lp23
(lp24
g17
aI2
aF0
aa(lp25
S'im'
p26
aS'very'
p27
aS'well'
p28
aS'thanks'
p29
aS'for'
p30
aS'asking'
p31
aaI3
aa(lp32
(lp33
(lp34
S'how'
p35
aS'are'
p36
aS'you'
p37
aaI3
aF0
aa(lp38
S'im'
p39
aS'fine'
p40
aaI4
aa(lp41
(lp42
g25
aI4
aF0
aa(lp43
S'do'
p44
aS'you'
p45
aS'like'
p46
aS'hats'
p47
aaI5
aa(lp48
(lp49
g38
aI5
aF0
aa(lp50
S'the'
p51
aS'weathers'
p52
aS'quite'
p53
aS'nice'
p54
aS'today'
p55
aS'isnt'
p56
aS'it'
p57
aaI6
aa(lp58
(lp59
g43
aI6
aF0
aa(lp60
S'yes'
p61
aS'i'
aS'do'
p62
aS'do'
p63
aS'you'
p64
aaI7
aa(lp65
(lp66
g50
aI7
aF0
aa(lp67
S'yes'
p68
aS'it'
p69
aS'is'
p70
aS'rather'
p71
aaI8
aa(lp72
(lp73
(lp74
S'yes'
p75
aS'i'
aS'do'
p76
aS'do'
p77
aS'you'
p78
aaI8
aF0
aa(lp79
S'not'
p80
aS'really'
p81
aaI9
aa(lp82
(lp83
(lp84
S'yes'
p85
aS'it'
p86
aS'is'
p87
aS'rather'
p88
aaI9
aF0
aa(lp89
S'i'
aS'think'
p90
aS'humans'
p91
aS'can'
p92
aS'get'
p93
aS'along'
p94
aS'perfectly'
p95
aS'well'
p96
aS'with'
p97
aS'computers'
p98
aS'do'
p99
aS'you'
p100
aaI10
aa(lp101
(lp102
g79
aI11
aF0
aa(lp103
S'why'
p104
aS'not'
p105
aaI11
aa(lp106
(lp107
g89
aI12
aF0
aa(lp108
S'yes'
p109
aS'of'
p110
aS'course'
p111
aaI12
aa(lp112
(lp113
g103
aI13
aF0
aa(lp114
S'i'
aS'said'
p115
aS'yes'
p116
aaI13
aa(lp117
(lp118
g108
aI14
aF0
aa(lp119
S'youre'
p120
aS'confusing'
p121
aS'me'
p122
aaI14
aa(lp123
(lp124
g114
aI15
aF0
aa(lp125
S'how'
p126
aS'are'
p127
aS'you'
p128
aS'feeling'
p129
aS'today'
p130
aaI15
aa(lp131
(lp132
g119
aI16
aF0
aa(lp133
S'well'
p134
aS'dont'
p135
aS'talk'
p136
aS'to'
p137
aS'me'
p138
aS'if'
p139
aS'you'
p140
aS'think'
p141
aS'im'
p142
aS'confusing'
p143
aS'you'
p144
aaI16
aa(lp145
(lp146
g125
aI17
aF0
aa(lp147
S'im'
p148
aS'feeling'
p149
aS'a'
aS'little'
p150
aS'disillusioned'
p151
aS'with'
p152
aS'the'
p153
aS'world'
p154
aaI17
aa(lp155
(lp156
g133
aI18
aF0
aa(lp157
S'bye'
p158
aaI18
aa(lp159
(lp160
g147
aI19
aF0
aa(lp161
S'im'
p162
aS'not'
p163
aS''
aS'stop'
p164
aS'being'
p165
aS'existential'
p166
aaI19
aa(lp167
(lp168
g157
aI20
aF0
aa(lp169
S'bye'
p170
aaI20
aa(lp171
(lp172
g161
aI21
aF0
aa(lp173
S'ok'
p174
aS'ill'
p175
aS'be'
p176
aS'sensible'
p177
aaI21
aa(lp178
(lp179
(lp180
S'bye'
p181
aaI22
aF0
aa(lp182
S'dont'
p183
aS'say'
p184
aS'goodbye'
p185
aS'to'
p186
aS'me'
p187
aS'yet'
p188
aaI22
aa(lp189
(lp190
(lp191
S'ok'
p192
aS'ill'
p193
aS'be'
p194
aS'sensible'
p195
aaI23
aF0
aa(lp196
S'thank'
p197
aS'you'
p198
aaI23
aa(lp199
(lp200
(lp201
S'how'
p202
aS'are'
p203
aS'you'
p204
aS'feeling'
p205
aaI25
aF0
aa(lp206
S'a'
aS'little'
p207
aS'poorly'
p208
aaI24
aa(lp209
(lp210
g182
aI26
aF0
aa(lp211
S'i'
aS'wasnt'
p212
aS'going'
p213
aS'to'
p214
aaI25
aaa(dp215
I0
(lp216
S'Hello'
p217
aS'Hi'
p218
asI1
(lp219
g218
ag217
asI2
(lp220
S'How are you?'
p221
aS"I'm fine, thanks. And you?"
p222
asI3
(lp223
g222
aS"I'm very well, thanks for asking."
p224
asI4
(lp225
S'How are you?'
p226
aS"I'm fine."
p227
asI5
(lp228
g224
aS'Do you like hats?'
p229
asI6
(lp230
g227
aS"The weather's quite nice today, isn't it?"
p231
asI7
(lp232
g229
aS'Yes, I do. Do you?'
p233
asI8
(lp234
g231
aS'Yes, it is rather.'
p235
asI9
(lp236
S'Yes, I do. Do you?'
p237
aS'Not really.'
p238
asI10
(lp239
S'Yes, it is rather.'
p240
aS'I think humans can get along perfectly well with computers. Do you?'
p241
asI11
(lp242
g238
aS'Why not?'
p243
asI12
(lp244
g241
aS'Yes, of course!'
p245
asI13
(lp246
g243
aS'I said yes.'
p247
asI14
(lp248
g245
aS"You're confusing me."
p249
asI15
(lp250
g247
aS'How are you feeling today?'
p251
asI16
(lp252
g249
aS"Well, don't talk to me if you think I'm confusing you."
p253
asI17
(lp254
g251
aS"I'm feeling a little disillusioned with the world."
p255
asI18
(lp256
g253
aS'Bye'
p257
asI19
(lp258
g255
aS"I'm not - stop being existential."
p259
asI20
(lp260
g257
aS'Bye'
p261
asI21
(lp262
g259
aS"Ok, I'll be sensible."
p263
asI22
(lp264
S'Bye'
p265
aS"Don't say goodbye to me yet!"
p266
asI23
(lp267
S"Ok, I'll be sensible."
p268
aS'Thank you.'
p269
asI24
(lp270
S'How are you feeling?'
p271
aS'A little poorly.'
p272
asI25
(lp273
g266
aS"I wasn't going to."
p274
asaI25
a.