(lp1
(lp2
(lp3
(lp4
S'hello'
p5
aa(lp6
S'hi'
p7
aaI0
aa(lp8
(lp9
g7
aa(lp10
g5
aaI1
aa(lp11
(lp12
S'how'
p13
aS'are'
p14
aS'you'
p15
aa(lp16
S'im'
p17
aS'very'
p18
aS'well'
p19
aS'thanks'
p20
aaI2
aa(lp21
(lp22
S'how'
p23
aS'are'
p24
aS'you'
p25
aS'feeling'
p26
aS'today'
p27
aa(lp28
S'not'
p29
aS'that'
p30
aS'great'
p31
aaI3
aa(lp32
g28
a(lp33
S'thats'
p34
aS'a'
aS'shame'
p35
aaI4
aa(lp36
g33
a(lp37
S'how'
p38
aS'are'
p39
aS'you'
p40
aaI5
aa(lp41
(lp42
S'how'
p43
aS'are'
p44
aS'you'
p45
aS'feeling'
p46
aa(lp47
S'im'
p48
aS'feeling'
p49
aS'fine'
p50
aaI6
aaa(dp51
I0
(lp52
S'Hello'
p53
aS'Hi'
p54
asI1
(lp55
g54
ag53
asI2
(lp56
S'How are you?'
p57
aS"I'm very well, thanks."
p58
asI3
(lp59
S'How are you feeling today?'
p60
aS'Not that great.'
p61
asI4
(lp62
g61
aS"That's a shame."
p63
asI5
(lp64
g63
aS'How are you?'
p65
asI6
(lp66
S'How are you feeling?'
p67
aS"I'm feeling fine."
p68
asaI6
a.