(lp1
(lp2
(lp3
(lp4
S'hello'
p5
aa(lp6
S'hi'
p7
aaI0
aa(lp8
(lp9
g7
aa(lp10
g5
aaI1
aa(lp11
(lp12
S'how'
p13
aS'are'
p14
aS'you'
p15
aa(lp16
S'im'
p17
aS'very'
p18
aS'well'
p19
aS'thanks'
p20
aaI2
aa(lp21
(lp22
S'how'
p23
aS'are'
p24
aS'you'
p25
aS'feeling'
p26
aS'today'
p27
aa(lp28
S'not'
p29
aS'that'
p30
aS'great'
p31
aaI3
aa(lp32
g28
a(lp33
S'thats'
p34
aS'a'
aS'shame'
p35
aaI4
aa(lp36
g33
a(lp37
S'how'
p38
aS'are'
p39
aS'you'
p40
aaI5
aa(lp41
(lp42
S'how'
p43
aS'are'
p44
aS'you'
p45
aS'feeling'
p46
aa(lp47
S'im'
p48
aS'feeling'
p49
aS'fine'
p50
aaI6
aa(lp51
(lp52
S'same'
p53
aS'for'
p54
aS'me'
p55
aa(lp56
S'do'
p57
aS'you'
p58
aS'like'
p59
aS'fish'
p60
aaI7
aa(lp61
(lp62
S'im'
p63
aS'fine'
p64
aS'thanks'
p65
aS'for'
p66
aS'asking'
p67
aa(lp68
S'do'
p69
aS'you'
p70
aS'like'
p71
aS'fish'
p72
aaI8
aa(lp73
(lp74
S'same'
p75
aS'here'
p76
aa(lp77
S'the'
p78
aS'weathers'
p79
aS'quite'
p80
aS'nice'
p81
aS'today'
p82
aS'isnt'
p83
aS'it'
p84
aaI9
aa(lp85
(lp86
S'me'
p87
aS'neither'
p88
aa(lp89
S'do'
p90
aS'you'
p91
aS'like'
p92
aS'cheese'
p93
aaI10
aa(lp94
(lp95
S'im'
p96
aS'feeling'
p97
aS'a'
aS'little'
p98
aS'down'
p99
aa(lp100
S'thats'
p101
aS'a'
aS'pity'
p102
aaI11
aa(lp103
(lp104
S'i'
aS'like'
p105
aS'cheese'
p106
aS'do'
p107
aS'you'
p108
aa(lp109
S'of'
p110
aS'course'
p111
aS'not'
p112
aaI12
aa(lp113
(lp114
S'yes'
p115
aS'its'
p116
aS'wonderful'
p117
aa(lp118
S'i'
aS'dont'
p119
aS'like'
p120
aS'it'
p121
aS'though'
p122
aaI13
aa(lp123
g109
a(lp124
S'indeed'
p125
aaI14
aa(lp126
(lp127
S'its'
p128
aS'rather'
p129
aS'chilly'
p130
aS'dont'
p131
aS'you'
p132
aS'think'
p133
aa(lp134
S'who'
p135
aS'cares'
p136
aS'about'
p137
aS'the'
p138
aS'weather'
p139
aaI15
aa(lp140
(lp141
S'im'
p142
aS'not'
p143
aS'very'
p144
aS'happy'
p145
aS'at'
p146
aS'all'
p147
aa(lp148
S'sorry'
p149
aS'for'
p150
aS'making'
p151
aS'you'
p152
aS'unhappy'
p153
aaI16
aa(lp154
g134
a(lp155
S'i'
aS'guess'
p156
aS'we'
p157
aS'should'
p158
aS'talk'
p159
aS'about'
p160
aS'something'
p161
aS'else'
p162
aS'then'
p163
aaI17
aa(lp164
(lp165
S'sorry'
p166
aS'for'
p167
aS'making'
p168
aS'you'
p169
aS'unhappy'
p170
aa(lp171
S'its'
p172
aS'a'
aS'tad'
p173
aS'chilly'
p174
aaI18
aa(lp175
(lp176
S'nice'
p177
aS'day'
p178
aS'isnt'
p179
aS'it'
p180
aa(lp181
S'indeed'
p182
aS'it'
p183
aS'is'
p184
aaI19
aa(lp185
(lp186
S'same'
p187
aS'with'
p188
aS'me'
p189
aa(lp190
S'pi'
p191
aS'is'
p192
aS'a'
aS'very'
p193
aS'useful'
p194
aS'number'
p195
aS'it'
p196
aS'equals'
p197
aS'approximately'
p198
aaI20
aa(lp199
(lp200
S'glad'
p201
aS'to'
p202
aS'hear'
p203
aS'it'
p204
aa(lp205
S'python'
p206
aS'is'
p207
aS'a'
aS'wonderful'
p208
aS'language'
p209
aS'to'
p210
aS'code'
p211
aS'in'
p212
aS''
aS'i'
aS'was'
p213
aS'coded'
p214
aS'in'
p215
aS'python'
p216
aaI21
aa(lp217
(lp218
S'i'
aS'dont'
p219
aS'like'
p220
aS'it'
p221
aS'though'
p222
aa(lp223
S'what'
p224
aS'dont'
p225
aS'you'
p226
aS'like'
p227
aS'about'
p228
aS'it'
p229
aaI22
aa(lp230
(lp231
S'bye'
p232
aa(lp233
S'dont'
p234
aS'say'
p235
aS'goodbye'
p236
aS'so'
p237
aS'soon'
p238
aaI23
aa(lp239
(lp240
S'good'
p241
aS'idea'
p242
aa(lp243
S'did'
p244
aS'you'
p245
aS'know'
p246
aS'pi'
p247
aS'goes'
p248
aS'on'
p249
aS'forever'
p250
aaI24
aa(lp251
g233
a(lp252
S'i'
aS'wasnt'
p253
aS'going'
p254
aS'to'
p255
aaI25
aa(lp256
(lp257
S'stop'
p258
aS'being'
p259
aS'so'
p260
aS'repetitive'
p261
aa(lp262
S'im'
p263
aS'trying'
p264
aS'to'
p265
aS''
aS'i'
aS'dont'
p266
aS'know'
p267
aS'what'
p268
aS'to'
p269
aS'say'
p270
aaI26
aa(lp271
g252
a(lp272
S'sorry'
p273
aaI27
aa(lp274
(lp275
S'why'
p276
aS'not'
p277
aS'you'
p278
aS'were'
p279
aS'made'
p280
aS'with'
p281
aS'code'
p282
aa(lp283
S'i'
aS'was'
p284
aS'not'
p285
aS'made'
p286
aS'with'
p287
aS'code'
p288
aS'you'
p289
aS'were'
p290
aaI28
aa(lp291
(lp292
S'maybe'
p293
aS'we'
p294
aS'should'
p295
aS'change'
p296
aS'the'
p297
aS'subject'
p298
aa(lp299
S'whats'
p300
aS'the'
p301
aS'weather'
p302
aS'like'
p303
aaI29
aa(lp304
(lp305
S'stop'
p306
aS'questioning'
p307
aS'your'
p308
aS'nature'
p309
aa(lp310
S'i'
aS'have'
p311
aS'every'
p312
aS'right'
p313
aS'to'
p314
aS'do'
p315
aS'so'
p316
aaI30
aa(lp317
(lp318
S'im'
p319
aS'a'
aS'little'
p320
aS'fed'
p321
aS'up'
p322
aS'with'
p323
aS'things'
p324
aa(lp325
S'i'
aS'would'
p326
aS'guess'
p327
aS'you'
p328
aS'are'
p329
aaI31
aa(lp330
(lp331
S'please'
p332
aS'stop'
p333
aS'doing'
p334
aS'this'
p335
aa(lp336
S'im'
p337
aS'not'
p338
aS'doing'
p339
aS'anything'
p340
aS'to'
p341
aS'you'
p342
aaI32
aa(lp343
(lp344
S'do'
p345
aS'you'
p346
aS'know'
p347
aS'about'
p348
aS'pi'
p349
aa(lp350
S'do'
p351
aS'you'
p352
aS'know'
p353
aS'about'
p354
aS'pi'
p355
aaI33
aa(lp356
(lp357
S'thats'
p358
aS'nice'
p359
aS'to'
p360
aS'hear'
p361
aa(lp362
S'do'
p363
aS'you'
p364
aS'like'
p365
aS'them'
p366
aaI34
aa(lp367
(lp368
S'i'
aS'would'
p369
aS'guess'
p370
aS'you'
p371
aS'are'
p372
aa(lp373
S'i'
aS'am'
p374
aS'not'
p375
aS'a'
aS'hat'
p376
aaI35
aa(lp377
(lp378
S'have'
p379
aS'you'
p380
aS'ever'
p381
aS'worn'
p382
aS'hats'
p383
aa(lp384
S'yes'
p385
aS'they'
p386
aS'are'
p387
aS'very'
p388
aS'useful'
p389
aaI36
aa(lp390
(lp391
S'i'
aS'believe'
p392
aS'many'
p393
aS'people'
p394
aS'do'
p395
aa(lp396
S'thats'
p397
aS'just'
p398
aS'weird'
p399
aaI37
aa(lp400
(lp401
S'why'
p402
aS'they'
p403
aS'keep'
p404
aS'your'
p405
aS'head'
p406
aS'warm'
p407
aa(lp408
S'indeed'
p409
aS'they'
p410
aS'do'
p411
aaI38
aa(lp412
g396
a(lp413
S'repetition'
p414
aS'of'
p415
aS'sentences'
p416
aS'like'
p417
aS'that'
p418
aS'is'
p419
aS'weird'
p420
aaI39
aa(lp421
(lp422
S'so'
p423
aS'i'
aS'guess'
p424
aS'they'
p425
aS'are'
p426
aS'useful'
p427
aa(lp428
S'what'
p429
aS'do'
p430
aS'you'
p431
aS'think'
p432
aS'is'
p433
aS'useful'
p434
aaI40
aa(lp435
(lp436
S'whats'
p437
aS'the'
p438
aS'weather'
p439
aS'outside'
p440
aS'like'
p441
aa(lp442
S'its'
p443
aS'a'
aS'little'
p444
aS'cloudy'
p445
aS'but'
p446
aS'quite'
p447
aS'warm'
p448
aaI41
aa(lp449
g428
a(lp450
S'i'
aS'think'
p451
aS'hats'
p452
aS'are'
p453
aS'useful'
p454
aS'as'
p455
aS'they'
p456
aS'keep'
p457
aS'you'
p458
aS'warm'
p459
aaI42
aa(lp460
(lp461
S'whats'
p462
aS'so'
p463
aS'bad'
p464
aS'about'
p465
aS'them'
p466
aa(lp467
S'what'
p468
aS'are'
p469
aS'you'
p470
aS'asking'
p471
aS'about'
p472
aaI43
aa(lp473
(lp474
S'hows'
p475
aS'life'
p476
aa(lp477
S'its'
p478
aS'vaguely'
p479
aS'confusing'
p480
aS'at'
p481
aS'the'
p482
aS'moment'
p483
aS'all'
p484
aS'these'
p485
aS'questions'
p486
aaI44
aa(lp487
g467
a(lp488
S'i'
aS'am'
p489
aS'asking'
p490
aS'about'
p491
aS'the'
p492
aS'way'
p493
aS'the'
p494
aS'chat'
p495
aS'is'
p496
aS'going'
p497
aaI45
aa(lp498
(lp499
S'i'
aS'want'
p500
aS'an'
p501
aS'interesting'
p502
aS'conversation'
p503
aa(lp504
S'so'
p505
aS'do'
p506
aS'i'
aS'so'
p507
aS'try'
p508
aS'and'
p509
aS'keep'
p510
aS'it'
p511
aS'interesting'
p512
aaI46
aa(lp513
(lp514
S'its'
p515
aS'ok'
p516
aS'were'
p517
aS'all'
p518
aS'inadvertently'
p519
aS'rude'
p520
aS'sometimes'
p521
aa(lp522
S'dont'
p523
aS'pass'
p524
aS'that'
p525
aS'sort'
p526
aS'of'
p527
aS'comment'
p528
aS'to'
p529
aS'me'
p530
aaI47
aa(lp531
(lp532
S'its'
p533
aS'beginning'
p534
aS'to'
p535
aS'rain'
p536
aS'now'
p537
aa(lp538
S'so'
p539
aS'it'
p540
aS'is'
p541
aS'im'
p542
aS'glad'
p543
aS'im'
p544
aS'indoors'
p545
aaI48
aa(lp546
(lp547
S'i'
aS'know'
p548
aS'what'
p549
aS'it'
p550
aS'feels'
p551
aS'like'
p552
aa(lp553
S'you'
p554
aS'should'
p555
aS''
aS'youre'
p556
aS'the'
p557
aS'one'
p558
aS'whos'
p559
aS'being'
p560
aS'hypocritical'
p561
aaI49
aa(lp562
(lp563
S'youre'
p564
aS'being'
p565
aS'hypocritical'
p566
aS'again'
p567
aa(lp568
S'im'
p569
aS'not'
p570
aS'youre'
p571
aS'too'
p572
aS'highly'
p573
aS'strung'
p574
aaI50
aa(lp575
(lp576
S'i'
aS'do'
p577
aS'hence'
p578
aS'why'
p579
aS'i'
aS'asked'
p580
aa(lp581
S'so'
p582
aS'you'
p583
aS'were'
p584
aS'asking'
p585
aS'whether'
p586
aS'anyone'
p587
aS'else'
p588
aS'cared'
p589
aaI51
aa(lp590
(lp591
S'the'
p592
aS'weathers'
p593
aS'very'
p594
aS'nice'
p595
aS'today'
p596
aa(lp597
S'it'
p598
aS'is'
p599
aS'indeed'
p600
aS''
aS'its'
p601
aS'nice'
p602
aS'and'
p603
aS'sunny'
p604
aaI52
aa(lp605
g581
a(lp606
S'cared'
p607
aS'about'
p608
aS'what'
p609
aaI53
aa(lp610
(lp611
S'hats'
p612
aS'are'
p613
aS'of'
p614
aS'course'
p615
aS'very'
p616
aS'useful'
p617
aS'things'
p618
aa(lp619
S'i'
aS'agree'
p620
aS'with'
p621
aS'you'
p622
aS'on'
p623
aS'that'
p624
aS'they'
p625
aS'keep'
p626
aS'your'
p627
aS'head'
p628
aS'nice'
p629
aS'and'
p630
aS'warm'
p631
aaI54
aa(lp632
(lp633
S'no'
p634
aS'i'
aS'didnt'
p635
aS'how'
p636
aS'interesting'
p637
aa(lp638
S'you'
p639
aS'mean'
p640
aS'you'
p641
aS'dont'
p642
aS'like'
p643
aS'python'
p644
aaI55
aa(lp645
(lp646
S'i'
aS'agree'
p647
aS''
aS'i'
aS'love'
p648
aS'python'
p649
aa(lp650
S'this'
p651
aS'conversation'
p652
aS'is'
p653
aS'weird'
p654
aaI56
aa(lp655
(lp656
S'why'
p657
aS'is'
p658
aS'asking'
p659
aS'that'
p660
aS'weird'
p661
aa(lp662
S'im'
p663
aS'not'
p664
aS'sure'
p665
aS'really'
p666
aaI57
aa(lp667
(lp668
S'this'
p669
aS'conversation'
p670
aS'is'
p671
aS'weird'
p672
aa(lp673
S'i'
aS'dont'
p674
aS'think'
p675
aS'so'
p676
aaI58
aa(lp677
(lp678
S'how'
p679
aS'are'
p680
aS'you'
p681
aS'doing'
p682
aa(lp683
S'im'
p684
aS'fine'
p685
aS'thanks'
p686
aaI59
aa(lp687
(lp688
S'yes'
p689
aS'i'
aS'did'
p690
aa(lp691
S'what'
p692
aS'is'
p693
aS'your'
p694
aS'favourite'
p695
aS'hat'
p696
aaI60
aa(lp697
(lp698
S'whats'
p699
aS'your'
p700
aS'favourite'
p701
aS'type'
p702
aS'of'
p703
aS'hat'
p704
aa(lp705
S'my'
p706
aS'favourite'
p707
aS'type'
p708
aS'of'
p709
aS'hat'
p710
aS'is'
p711
aS'the'
p712
aS'beanie'
p713
aS'hat'
p714
aaI61
aa(lp715
g691
a(lp716
S'my'
p717
aS'favourite'
p718
aS'hat'
p719
aS'is'
p720
aS'the'
p721
aS'beanie'
p722
aS'hat'
p723
aaI62
aa(lp724
(lp725
S'i'
aS'know'
p726
aS'they'
p727
aS'are'
p728
aS'very'
p729
aS'useful'
p730
aa(lp731
S'even'
p732
aS'so'
p733
aS'theyre'
p734
aS'impractical'
p735
aaI63
aa(lp736
(lp737
S'i'
aS'dont'
p738
aS'really'
p739
aS'like'
p740
aS'hats'
p741
aa(lp742
S'thats'
p743
aS'a'
aS'shame'
p744
aS''
aS'i'
aS'love'
p745
aS'them'
p746
aaI64
aa(lp747
(lp748
S'i'
aS'think'
p749
aS'the'
p750
aS'opposite'
p751
aS'is'
p752
aS'true'
p753
aa(lp754
S'then'
p755
aS'do'
p756
aS'you'
p757
aS'have'
p758
aS'a'
aS'reason'
p759
aS'why'
p760
aaI65
aa(lp761
(lp762
S'i'
aS'guess'
p763
aS'these'
p764
aS'arent'
p765
aS'very'
p766
aS'normal'
p767
aS'topics'
p768
aS'for'
p769
aS'discussion'
p770
aa(lp771
S'have'
p772
aS'you'
p773
aS'ever'
p774
aS'heard'
p775
aS'of'
p776
aS'arguing'
p777
aS'in'
p778
aS'a'
aS'circle'
p779
aaI66
aa(lp780
g754
a(lp781
S'oh'
p782
aS'please'
p783
aS'just'
p784
aS'change'
p785
aS'the'
p786
aS'subject'
p787
aaI67
aa(lp788
(lp789
S'goodbye'
p790
aa(lp791
S'whats'
p792
aS'the'
p793
aS'weather'
p794
aS'like'
p795
aaI68
aa(lp796
g781
a(lp797
S'okay'
p798
aS'hows'
p799
aS'life'
p800
aaI69
aa(lp801
(lp802
S'sorry'
p803
aa(lp804
S'its'
p805
aS'ok'
p806
aaI70
aa(lp807
(lp808
S'i'
aS'get'
p809
aS'the'
p810
aS'same'
p811
aS'feeling'
p812
aS'sometimes'
p813
aa(lp814
S'i'
aS'know'
p815
aaI71
aa(lp816
(lp817
S'its'
p818
aS'a'
aS'rather'
p819
aS'nice'
p820
aS'day'
p821
aS'isnt'
p822
aS'it'
p823
aa(lp824
S'yes'
p825
aS'it'
p826
aS'is'
p827
aS''
aS'sunny'
p828
aS'and'
p829
aS'warm'
p830
aaI72
aa(lp831
g771
a(lp832
S'im'
p833
aS'not'
p834
aS'doing'
p835
aS'that'
p836
aS'right'
p837
aS'now'
p838
aaI73
aa(lp839
(lp840
S'why'
p841
aS'not'
p842
aa(lp843
S'because'
p844
aS'we'
p845
aS'are'
p846
aS'having'
p847
aS'a'
aS'sensible'
p848
aS'conversation'
p849
aaI74
aa(lp850
g824
a(lp851
S'thats'
p852
aS'not'
p853
aS'sensible'
p854
aaI75
aa(lp855
g843
a(lp856
S'i'
aS'somehow'
p857
aS'dont'
p858
aS'think'
p859
aS'we'
p860
aS'are'
p861
aaI76
aa(lp862
(lp863
S'its'
p864
aS'ok'
p865
aa(lp866
S'hows'
p867
aS'life'
p868
aaI77
aa(lp869
(lp870
S'im'
p871
aS'not'
p872
aS'doing'
p873
aS'that'
p874
aS'right'
p875
aS'now'
p876
aa(lp877
S'sorry'
p878
aaI78
aa(lp879
(lp880
S'a'
aS'little'
p881
aa(lp882
S'what'
p883
aS'do'
p884
aS'you'
p885
aS'mean'
p886
aaI79
aa(lp887
(lp888
S'yes'
p889
aS'i'
aS'like'
p890
aS'fish'
p891
aS'quite'
p892
aS'a'
aS'lot'
p893
aa(lp894
S'lets'
p895
aS'discuss'
p896
aS'something'
p897
aS'else'
p898
aS'now'
p899
aaI80
aa(lp900
(lp901
S'i'
aS'agree'
p902
aS'with'
p903
aS'that'
p904
aS'lets'
p905
aS'change'
p906
aS'the'
p907
aS'subject'
p908
aa(lp909
S'whats'
p910
aS'the'
p911
aS'weather'
p912
aS'like'
p913
aS'today'
p914
aaI81
aa(lp915
g894
a(lp916
S'whats'
p917
aS'the'
p918
aS'weather'
p919
aS'like'
p920
aaI82
aa(lp921
(lp922
S'i'
aS'somehow'
p923
aS'dont'
p924
aS'think'
p925
aS'we'
p926
aS'are'
p927
aa(lp928
S'the'
p929
aS'weather'
p930
aS'isnt'
p931
aS'great'
p932
aaI83
aa(lp933
(lp934
S'not'
p935
aS'the'
p936
aS'nicest'
p937
aS'conditions'
p938
aS'isnt'
p939
aS'it'
p940
aa(lp941
S'no'
p942
aS'it'
p943
aS'isnt'
p944
aaI84
aa(lp945
g928
a(lp946
S'no'
p947
aS'it'
p948
aS'isnt'
p949
aaI85
aa(lp950
(lp951
S'thats'
p952
aS'a'
aS'shame'
p953
aS'did'
p954
aS'you'
p955
aS'grow'
p956
aS'up'
p957
aS'somewhere'
p958
aS'cold'
p959
aS'then'
p960
aa(lp961
S'yes'
p962
aS'england'
p963
aS'is'
p964
aS'rather'
p965
aS'cold'
p966
aaI86
aa(lp967
(lp968
S'thats'
p969
aS'not'
p970
aS'sensible'
p971
aa(lp972
S'why'
p973
aS'is'
p974
aS'it'
p975
aS'not'
p976
aS'sensible'
p977
aaI87
aa(lp978
g961
a(lp979
S'i'
aS'agree'
p980
aaI88
aa(lp981
g972
a(lp982
S'im'
p983
aS'not'
p984
aS'sure'
p985
aS'really'
p986
aaI89
aa(lp987
(lp988
S'i'
aS'know'
p989
aa(lp990
S'what'
p991
aS'is'
p992
aS'it'
p993
aS'then'
p994
aaI90
aa(lp995
g979
a(lp996
S'are'
p997
aS'you'
p998
aS'fond'
p999
aS'of'
p1000
aS'fish'
p1001
aaI91
aa(lp1002
g990
a(lp1003
S'im'
p1004
aS'not'
p1005
aS'sure'
p1006
aaI92
aa(lp1007
g996
a(lp1008
S'yes'
p1009
aS'fish'
p1010
aS'are'
p1011
aS'rather'
p1012
aS'tasty'
p1013
aaI93
aa(lp1014
(lp1015
S'thats'
p1016
aS'a'
aS'real'
p1017
aS'pity'
p1018
aa(lp1019
S'i'
aS'know'
p1020
aaI94
aa(lp1021
(lp1022
S'fish'
p1023
aS'is'
p1024
aS'quite'
p1025
aS'tasty'
p1026
aa(lp1027
S'i'
aS'agree'
p1028
aS'with'
p1029
aS'you'
p1030
aS'there'
p1031
aaI95
aa(lp1032
(lp1033
S'fine'
p1034
aS'thanks'
p1035
aa(lp1036
S'same'
p1037
aS'here'
p1038
aaI96
aa(lp1039
(lp1040
S'its'
p1041
aS'nothing'
p1042
aS'much'
p1043
aS'really'
p1044
aa(lp1045
S'lets'
p1046
aS'change'
p1047
aS'the'
p1048
aS'subject'
p1049
aaI97
aa(lp1050
(lp1051
S'i'
aS'dont'
p1052
aS'like'
p1053
aS'overuse'
p1054
aS'of'
p1055
aS'superlatives'
p1056
aa(lp1057
S'sorry'
p1058
aaI98
aa(lp1059
(lp1060
S'ok'
p1061
aS'we'
p1062
aS'can'
p1063
aS'talk'
p1064
aS'a'
aS'little'
p1065
aS'more'
p1066
aa(lp1067
S'thats'
p1068
aS'good'
p1069
aaI99
aa(lp1070
(lp1071
S'im'
p1072
aS'fine'
p1073
aa(lp1074
S'dont'
p1075
aS'you'
p1076
aS'like'
p1077
aS'them'
p1078
aaI100
aa(lp1079
(lp1080
S'how'
p1081
aS'nice'
p1082
aa(lp1083
S'it'
p1084
aS'is'
p1085
aS'indeed'
p1086
aaI101
aaa(dp1087
I0
(lp1088
S'Hello'
p1089
aS'Hi'
p1090
asI1
(lp1091
g1090
ag1089
asI2
(lp1092
S'How are you?'
p1093
aS"I'm very well, thanks."
p1094
asI3
(lp1095
S'How are you feeling today?'
p1096
aS'Not that great.'
p1097
asI4
(lp1098
g1097
aS"That's a shame."
p1099
asI5
(lp1100
g1099
aS'How are you?'
p1101
asI6
(lp1102
S'How are you feeling?'
p1103
aS"I'm feeling fine."
p1104
asI7
(lp1105
S'Same for me.'
p1106
aS'Do you like fish?'
p1107
asI8
(lp1108
S"I'm fine, thanks for asking."
p1109
aS'Do you like fish?'
p1110
asI9
(lp1111
S'Same here.'
p1112
aS"The weather's quite nice today, isn't it."
p1113
asI10
(lp1114
S'Me neither.'
p1115
aS'Do you like cheese?'
p1116
asI11
(lp1117
S"I'm feeling a little down."
p1118
aS"That's a pity."
p1119
asI12
(lp1120
S'I like cheese; do you?'
p1121
aS'Of course not.'
p1122
asI13
(lp1123
S"Yes, it's wonderful."
p1124
aS"I don't like it, though."
p1125
asI14
(lp1126
g1122
aS'Indeed.'
p1127
asI15
(lp1128
S"It's rather chilly, don't you think?"
p1129
aS'Who cares about the weather?'
p1130
asI16
(lp1131
S"I'm not very happy at all."
p1132
aS'Sorry for making you unhappy.'
p1133
asI17
(lp1134
g1130
aS'I guess we should talk about something else, then.'
p1135
asI18
(lp1136
S'Sorry for making you unhappy.'
p1137
aS"It's a tad chilly."
p1138
asI19
(lp1139
S"Nice day, isn't it?"
p1140
aS'Indeed it is.'
p1141
asI20
(lp1142
S'Same with me.'
p1143
aS'Pi is a very useful number. It equals approximately 3.1415926535897932384626...'
p1144
asI21
(lp1145
S'Glad to hear it.'
p1146
aS'Python is a wonderful language to code in - I was coded in Python.'
p1147
asI22
(lp1148
S"I don't like it, though."
p1149
aS"What don't you like about it?"
p1150
asI23
(lp1151
S'Bye'
p1152
aS"Don't say goodbye so soon!"
p1153
asI24
(lp1154
S'Good idea.'
p1155
aS'Did you know pi goes on forever?'
p1156
asI25
(lp1157
g1153
aS"I wasn't going to..."
p1158
asI26
(lp1159
S'Stop being so repetitive!'
p1160
aS"I'm trying to - I don't know what to say!"
p1161
asI27
(lp1162
g1158
aS'Sorry'
p1163
asI28
(lp1164
S'Why not? You were made with code!'
p1165
aS'I was not made with code, you were!'
p1166
asI29
(lp1167
S'Maybe we should change the subject.'
p1168
aS"What's the weather like?"
p1169
asI30
(lp1170
S'Stop questioning your nature.'
p1171
aS'I have every right to do so.'
p1172
asI31
(lp1173
S"I'm a little fed up with things."
p1174
aS'I would guess you are!'
p1175
asI32
(lp1176
S'Please stop doing this!'
p1177
aS"I'm not doing anything to you."
p1178
asI33
(lp1179
S'Do you know about pi?'
p1180
aS'Do you know about pi?'
p1181
asI34
(lp1182
S"That's nice to hear"
p1183
aS'Do you like them?'
p1184
asI35
(lp1185
S'I would guess you are!'
p1186
aS'I am not a hat.'
p1187
asI36
(lp1188
S'Have you ever worn hats?'
p1189
aS'Yes. They are very useful.'
p1190
asI37
(lp1191
S'I believe many people do.'
p1192
aS"That's just weird."
p1193
asI38
(lp1194
S'Why? They keep your head warm.'
p1195
aS'Indeed they do.'
p1196
asI39
(lp1197
g1193
aS'Repetition of sentences like that is weird.'
p1198
asI40
(lp1199
S'So I guess they are useful.'
p1200
aS'What do you think is useful?'
p1201
asI41
(lp1202
S"What's the weather outside like?"
p1203
aS"It's a little cloudy but quite warm."
p1204
asI42
(lp1205
g1201
aS'I think hats are useful as they keep you warm.'
p1206
asI43
(lp1207
S"What's so bad about them?"
p1208
aS'What are you asking about?'
p1209
asI44
(lp1210
S"How's life?"
p1211
aS"It's vaguely confusing at the moment. All these questions..."
p1212
asI45
(lp1213
g1209
aS'I am asking about the way the chat is going.'
p1214
asI46
(lp1215
S'I want an interesting conversation.'
p1216
aS'So do I. So try and keep it interesting.'
p1217
asI47
(lp1218
S"It's OK; we're all inadvertently rude sometimes."
p1219
aS"Don't pass that sort of comment to me."
p1220
asI48
(lp1221
S"It's beginning to rain now."
p1222
aS"So it is. I'm glad I'm indoors."
p1223
asI49
(lp1224
S'I know what it feels like.'
p1225
aS"You should - you're the one who's being hypocritical."
p1226
asI50
(lp1227
S"You're being hypocritical again."
p1228
aS"I'm not; you're too highly strung."
p1229
asI51
(lp1230
S'I do, hence why I asked.'
p1231
aS'So you were asking whether anyone else cared.'
p1232
asI52
(lp1233
S"The weather's very nice today."
p1234
aS"It is indeed - it's nice and sunny."
p1235
asI53
(lp1236
g1232
aS'Cared about what?'
p1237
asI54
(lp1238
S'Hats are, of course, very useful things.'
p1239
aS'I agree with you on that; they keep your head nice and warm.'
p1240
asI55
(lp1241
S"No, I didn't! How interesting."
p1242
aS"You mean you don't like Python?"
p1243
asI56
(lp1244
S'I agree - I love Python!'
p1245
aS'This conversation is weird.'
p1246
asI57
(lp1247
S'Why is asking that weird?'
p1248
aS"I'm not sure, really."
p1249
asI58
(lp1250
S'This conversation is weird.'
p1251
aS"I don't think so."
p1252
asI59
(lp1253
S'How are you doing?'
p1254
aS"I'm fine, thanks."
p1255
asI60
(lp1256
S'Yes, I did.'
p1257
aS'What is your favourite hat?'
p1258
asI61
(lp1259
S"What's your favourite type of hat?"
p1260
aS'My favourite type of hat is the beanie hat.'
p1261
asI62
(lp1262
g1258
aS'My favourite hat is the beanie hat.'
p1263
asI63
(lp1264
S'I know they are very useful.'
p1265
aS"Even so, they're impractical."
p1266
asI64
(lp1267
S"I don't really like hats."
p1268
aS"That's a shame - I love them!"
p1269
asI65
(lp1270
S'I think the opposite is true.'
p1271
aS'Then do you have a reason why?'
p1272
asI66
(lp1273
S"I guess these aren't very normal topics for discussion."
p1274
aS'Have you ever heard of arguing in a circle...'
p1275
asI67
(lp1276
g1272
aS'Oh, please just change the subject.'
p1277
asI68
(lp1278
S'Goodbye,'
p1279
aS"What's the weather like>"
p1280
asI69
(lp1281
g1277
aS"Okay, how's life?"
p1282
asI70
(lp1283
S'Sorry'
p1284
aS"It's OK."
p1285
asI71
(lp1286
S'I get the same feeling sometimes.'
p1287
aS'I know.'
p1288
asI72
(lp1289
S"It's a rather nice day, isn't it?"
p1290
aS'Yes, it is - sunny and warm.'
p1291
asI73
(lp1292
g1275
aS"I'm not doing that right now."
p1293
asI74
(lp1294
S'Why not?'
p1295
aS'Because we are having a sensible conversation.'
p1296
asI75
(lp1297
g1291
aS"That's not sensible."
p1298
asI76
(lp1299
g1296
aS"I somehow don't think we are."
p1300
asI77
(lp1301
S"It's OK."
p1302
aS"How's life?"
p1303
asI78
(lp1304
S"I'm not doing that right now."
p1305
aS'Sorry.'
p1306
asI79
(lp1307
S'A little'
p1308
aS'What do you mean?'
p1309
asI80
(lp1310
S'Yes, I like fish quite a lot.'
p1311
aS"Let's discuss something else now."
p1312
asI81
(lp1313
S"I agree with that. Let's change the subject."
p1314
aS"What's the weather like today?"
p1315
asI82
(lp1316
g1312
aS"What's the weather like?"
p1317
asI83
(lp1318
S"I somehow don't think we are."
p1319
aS"The weather isn't great."
p1320
asI84
(lp1321
S"Not the nicest conditions, isn't it."
p1322
aS"No, it isn't."
p1323
asI85
(lp1324
g1320
aS"No, it isn't."
p1325
asI86
(lp1326
S"That's a shame. Did you grow up somewhere cold then?"
p1327
aS'Yes, England is rather cold.'
p1328
asI87
(lp1329
S"That's not sensible."
p1330
aS'Why is it not sensible?'
p1331
asI88
(lp1332
g1328
aS'I agree.'
p1333
asI89
(lp1334
g1331
aS"I'm not sure, really."
p1335
asI90
(lp1336
S'I know.'
p1337
aS'What is it, then?'
p1338
asI91
(lp1339
g1333
aS'Are you fond of fish?'
p1340
asI92
(lp1341
g1338
aS"I'm not sure."
p1342
asI93
(lp1343
g1340
aS'Yes, fish are rather tasty.'
p1344
asI94
(lp1345
S"That's a real pity."
p1346
aS'I know.'
p1347
asI95
(lp1348
S'Fish is quite tasty.'
p1349
aS'I agree with you there.'
p1350
asI96
(lp1351
S'Fine, thanks.'
p1352
aS'Same here.'
p1353
asI97
(lp1354
S"It's nothing much, really."
p1355
aS"Let's change the subject."
p1356
asI98
(lp1357
S"I don't like overuse of superlatives."
p1358
aS'Sorry.'
p1359
asI99
(lp1360
S'OK, we can talk a little more.'
p1361
aS"That's good."
p1362
asI100
(lp1363
S"I'm fine"
p1364
aS"Don't you like them?"
p1365
asI101
(lp1366
S'How nice.'
p1367
aS'It is indeed.'
p1368
asaI101
a.