(lp1
(lp2
(lp3
S'hello'
p4
aI2
aa(lp5
S'hi'
p6
aI2
aa(lp7
(lp8
S'how'
p9
aS'are'
p10
aS'you'
p11
aaI1
aa(lp12
I0
aI5
aa(lp13
S'im'
p14
aI2
aa(lp15
S'very'
p16
aI1
aa(lp17
S'well'
p18
aI1
aa(lp19
S'thanks'
p20
aI1
aa(lp21
(lp22
S'how'
p23
aS'are'
p24
aS'you'
p25
aS'feeling'
p26
aS'today'
p27
aaI1
aa(lp28
I1
aI2
aa(lp29
S'not'
p30
aI1
aa(lp31
S'that'
p32
aI1
aa(lp33
S'great'
p34
aI1
aa(lp35
(lp36
g30
ag32
ag34
aaI1
aa(lp37
I3
aI1
aa(lp38
S'thats'
p39
aI1
aa(lp40
S'a'
aI1
aa(lp41
S'shame'
p42
aI1
aa(lp43
(lp44
g39
aS'a'
ag42
aaI1
aa(lp45
I4
aI1
aa(lp46
S'how'
p47
aI1
aa(lp48
S'are'
p49
aI1
aa(lp50
S'you'
p51
aI1
aa(lp52
(lp53
S'how'
p54
aS'are'
p55
aS'you'
p56
aS'feeling'
p57
aaI1
aa(lp58
I5
aI1
aa(lp59
S'feeling'
p60
aI1
aa(lp61
S'fine'
p62
aI1
aaa.