(lp1
(lp2
(lp3
S'hello'
p4
aI1
aa(lp5
S'hi'
p6
aI2
aa(lp7
g4
aI1
aa(lp8
S'how'
p9
aI4
aa(lp10
S'are'
p11
aI12
aa(lp12
S'you'
p13
aI31
aa(lp14
S'im'
p15
aI11
aa(lp16
S'very'
p17
aI6
aa(lp18
S'well'
p19
aI1
aa(lp20
S'thanks'
p21
aI2
aa(lp22
S'feeling'
p23
aI4
aa(lp24
S'today'
p25
aI3
aa(lp26
S'not'
p27
aI10
aa(lp28
S'that'
p29
aI5
aa(lp30
S'great'
p31
aI2
aa(lp32
S'thats'
p33
aI6
aa(lp34
S'a'
aI10
aa(lp35
S'shame'
p36
aI2
aa(lp37
S'fine'
p38
aI2
aa(lp39
S'same'
p40
aI3
aa(lp41
S'for'
p42
aI4
aa(lp43
S'me'
p44
aI4
aa(lp45
S'do'
p46
aI14
aa(lp47
S'like'
p48
aI12
aa(lp49
S'fish'
p50
aI2
aa(lp51
S'asking'
p52
aI6
aa(lp53
S'here'
p54
aI1
aa(lp55
S'the'
p56
aI11
aa(lp57
S'weathers'
p58
aI2
aa(lp59
S'quite'
p60
aI2
aa(lp61
S'nice'
p62
aI6
aa(lp63
S'isnt'
p64
aI2
aa(lp65
S'it'
p66
aI12
aa(lp67
S'neither'
p68
aI1
aa(lp69
S'cheese'
p70
aI2
aa(lp71
S'little'
p72
aI3
aa(lp73
S'down'
p74
aI1
aa(lp75
S'pity'
p76
aI1
aa(lp77
S'i'
aI23
aa(lp78
S'of'
p79
aI5
aa(lp80
S'course'
p81
aI3
aa(lp82
S'yes'
p83
aI2
aa(lp84
S'its'
p85
aI8
aa(lp86
S'wonderful'
p87
aI2
aa(lp88
S'dont'
p89
aI8
aa(lp90
S'though'
p91
aI2
aa(lp92
S'indeed'
p93
aI4
aa(lp94
S'rather'
p95
aI1
aa(lp96
S'chilly'
p97
aI2
aa(lp98
S'think'
p99
aI4
aa(lp100
S'who'
p101
aI2
aa(lp102
S'cares'
p103
aI2
aa(lp104
S'about'
p105
aI11
aa(lp106
S'weather'
p107
aI4
aa(lp108
S'happy'
p109
aI1
aa(lp110
S'at'
p111
aI2
aa(lp112
S'all'
p113
aI3
aa(lp114
S'sorry'
p115
aI3
aa(lp116
S'making'
p117
aI2
aa(lp118
S'unhappy'
p119
aI2
aa(lp120
S'guess'
p121
aI4
aa(lp122
S'we'
p123
aI2
aa(lp124
S'should'
p125
aI3
aa(lp126
S'talk'
p127
aI1
aa(lp128
S'something'
p129
aI1
aa(lp130
S'else'
p131
aI3
aa(lp132
S'then'
p133
aI1
aa(lp134
S'tad'
p135
aI1
aa(lp136
S'day'
p137
aI1
aa(lp138
S'is'
p139
aI9
aa(lp140
S'with'
p141
aI5
aa(lp142
S'pi'
p143
aI4
aa(lp144
S'useful'
p145
aI7
aa(lp146
S'number'
p147
aI1
aa(lp148
S'equals'
p149
aI1
aa(lp150
S'approximately'
p151
aI1
aa(lp152
S'glad'
p153
aI2
aa(lp154
S'to'
p155
aI11
aa(lp156
S'hear'
p157
aI2
aa(lp158
S'python'
p159
aI2
aa(lp160
S'language'
p161
aI1
aa(lp162
S'code'
p163
aI3
aa(lp164
S'in'
p165
aI2
aa(lp166
S''
aI4
aa(lp167
S'was'
p168
aI2
aa(lp169
S'coded'
p170
aI1
aa(lp171
S'what'
p172
aI8
aa(lp173
S'bye'
p174
aI1
aa(lp175
S'say'
p176
aI3
aa(lp177
S'goodbye'
p178
aI2
aa(lp179
S'so'
p180
aI11
aa(lp181
S'soon'
p182
aI2
aa(lp183
S'good'
p184
aI1
aa(lp185
S'idea'
p186
aI1
aa(lp187
S'did'
p188
aI1
aa(lp189
S'know'
p190
aI5
aa(lp191
S'goes'
p192
aI1
aa(lp193
S'on'
p194
aI2
aa(lp195
S'forever'
p196
aI1
aa(lp197
S'wasnt'
p198
aI2
aa(lp199
S'going'
p200
aI3
aa(lp201
S'stop'
p202
aI3
aa(lp203
S'being'
p204
aI3
aa(lp205
S'repetitive'
p206
aI1
aa(lp207
S'trying'
p208
aI1
aa(lp209
S'why'
p210
aI3
aa(lp211
S'were'
p212
aI5
aa(lp213
S'made'
p214
aI2
aa(lp215
S'maybe'
p216
aI1
aa(lp217
S'change'
p218
aI1
aa(lp219
S'subject'
p220
aI1
aa(lp221
S'whats'
p222
aI3
aa(lp223
S'questioning'
p224
aI1
aa(lp225
S'your'
p226
aI3
aa(lp227
S'nature'
p228
aI1
aa(lp229
S'have'
p230
aI2
aa(lp231
S'every'
p232
aI1
aa(lp233
S'right'
p234
aI1
aa(lp235
S'fed'
p236
aI1
aa(lp237
S'up'
p238
aI1
aa(lp239
S'things'
p240
aI2
aa(lp241
S'would'
p242
aI2
aa(lp243
S'please'
p244
aI1
aa(lp245
S'doing'
p246
aI2
aa(lp247
S'this'
p248
aI1
aa(lp249
S'anything'
p250
aI1
aa(lp251
S'them'
p252
aI2
aa(lp253
S'am'
p254
aI2
aa(lp255
S'hat'
p256
aI1
aa(lp257
S'ever'
p258
aI1
aa(lp259
S'worn'
p260
aI1
aa(lp261
S'hats'
p262
aI3
aa(lp263
S'they'
p264
aI6
aa(lp265
S'believe'
p266
aI1
aa(lp267
S'many'
p268
aI1
aa(lp269
S'people'
p270
aI1
aa(lp271
S'just'
p272
aI2
aa(lp273
S'weird'
p274
aI3
aa(lp275
S'keep'
p276
aI4
aa(lp277
S'head'
p278
aI2
aa(lp279
S'warm'
p280
aI4
aa(lp281
S'repetition'
p282
aI1
aa(lp283
S'sentences'
p284
aI1
aa(lp285
S'outside'
p286
aI1
aa(lp287
S'cloudy'
p288
aI1
aa(lp289
S'but'
p290
aI1
aa(lp291
S'as'
p292
aI1
aa(lp293
S'bad'
p294
aI1
aa(lp295
S'hows'
p296
aI1
aa(lp297
S'life'
p298
aI1
aa(lp299
S'vaguely'
p300
aI1
aa(lp301
S'confusing'
p302
aI1
aa(lp303
S'moment'
p304
aI1
aa(lp305
S'these'
p306
aI1
aa(lp307
S'questions'
p308
aI1
aa(lp309
S'way'
p310
aI1
aa(lp311
S'chat'
p312
aI1
aa(lp313
S'want'
p314
aI1
aa(lp315
S'an'
p316
aI1
aa(lp317
S'interesting'
p318
aI2
aa(lp319
S'conversation'
p320
aI1
aa(lp321
S'try'
p322
aI1
aa(lp323
S'and'
p324
aI3
aa(lp325
S'ok'
p326
aI1
aa(lp327
S'inadvertently'
p328
aI1
aa(lp329
S'rude'
p330
aI1
aa(lp331
S'sometimes'
p332
aI1
aa(lp333
S'pass'
p334
aI1
aa(lp335
S'sort'
p336
aI1
aa(lp337
S'comment'
p338
aI1
aa(lp339
S'beginning'
p340
aI1
aa(lp341
S'rain'
p342
aI1
aa(lp343
S'now'
p344
aI1
aa(lp345
S'indoors'
p346
aI1
aa(lp347
S'feels'
p348
aI1
aa(lp349
S'youre'
p350
aI3
aa(lp351
S'one'
p352
aI1
aa(lp353
S'whos'
p354
aI1
aa(lp355
S'hypocritical'
p356
aI2
aa(lp357
S'again'
p358
aI1
aa(lp359
S'too'
p360
aI1
aa(lp361
S'highly'
p362
aI1
aa(lp363
S'strung'
p364
aI1
aa(lp365
S'hence'
p366
aI1
aa(lp367
S'asked'
p368
aI1
aa(lp369
S'whether'
p370
aI2
aa(lp371
S'anyone'
p372
aI2
aa(lp373
S'cared'
p374
aI3
aa(lp375
S'sunny'
p376
aI1
aa(lp377
S'agree'
p378
aI1
aaa.