(lp1
(lp2
(lp3
S'hello'
p4
aI2
aa(lp5
S'hi'
p6
aI2
aa(lp7
(lp8
S'hi'
p9
aaI24
aa(lp10
I0
aI24
aa(lp11
F0.5
aI24
aa(lp12
S'im'
p13
aI6
aa(lp14
S'fine'
p15
aI2
aa(lp16
S'thanks'
p17
aI2
aa(lp18
S'and'
p19
aI1
aa(lp20
S'you'
p21
aI8
aa(lp22
S'very'
p23
aI1
aa(lp24
S'well'
p25
aI3
aa(lp26
S'for'
p27
aI1
aa(lp28
S'asking'
p29
aI1
aa(lp30
S'do'
p31
aI4
aa(lp32
S'like'
p33
aI1
aa(lp34
S'hats'
p35
aI1
aa(lp36
S'the'
p37
aI2
aa(lp38
S'weathers'
p39
aI1
aa(lp40
S'quite'
p41
aI1
aa(lp42
S'nice'
p43
aI1
aa(lp44
S'today'
p45
aI2
aa(lp46
S'isnt'
p47
aI1
aa(lp48
S'it'
p49
aI2
aa(lp50
S'yes'
p51
aI4
aa(lp52
S'i'
aI4
aa(lp53
S'is'
p54
aI1
aa(lp55
S'rather'
p56
aI1
aa(lp57
S'not'
p58
aI3
aa(lp59
S'really'
p60
aI1
aa(lp61
S'think'
p62
aI2
aa(lp63
S'humans'
p64
aI1
aa(lp65
S'can'
p66
aI1
aa(lp67
S'get'
p68
aI1
aa(lp69
S'along'
p70
aI1
aa(lp71
S'perfectly'
p72
aI1
aa(lp73
S'with'
p74
aI2
aa(lp75
S'computers'
p76
aI1
aa(lp77
S'why'
p78
aI1
aa(lp79
S'of'
p80
aI1
aa(lp81
S'course'
p82
aI1
aa(lp83
S'said'
p84
aI1
aa(lp85
S'youre'
p86
aI1
aa(lp87
S'confusing'
p88
aI2
aa(lp89
S'me'
p90
aI3
aa(lp91
S'how'
p92
aI1
aa(lp93
S'are'
p94
aI1
aa(lp95
S'feeling'
p96
aI2
aa(lp97
S'dont'
p98
aI2
aa(lp99
S'talk'
p100
aI1
aa(lp101
S'to'
p102
aI3
aa(lp103
S'if'
p104
aI1
aa(lp105
S'a'
aI2
aa(lp106
S'little'
p107
aI2
aa(lp108
S'disillusioned'
p109
aI1
aa(lp110
S'world'
p111
aI1
aa(lp112
S'bye'
p113
aI2
aa(lp114
S''
aI1
aa(lp115
S'stop'
p116
aI1
aa(lp117
S'being'
p118
aI1
aa(lp119
S'existential'
p120
aI1
aa(lp121
S'ok'
p122
aI1
aa(lp123
S'ill'
p124
aI1
aa(lp125
S'be'
p126
aI1
aa(lp127
S'sensible'
p128
aI1
aa(lp129
S'say'
p130
aI1
aa(lp131
S'goodbye'
p132
aI1
aa(lp133
S'yet'
p134
aI1
aa(lp135
S'thank'
p136
aI1
aa(lp137
S'poorly'
p138
aI1
aa(lp139
S'wasnt'
p140
aI1
aa(lp141
S'going'
p142
aI1
aaa.