(lp1
(lp2
(lp3
(lp4
S'no'
p5
aS'i'
aS'didnt'
p6
aS'how'
p7
aS'interesting'
p8
aaI244
aF0.39104477611940303
aa(lp9
(lp10
S'without'
p11
aS'a'
aS'computer'
p12
aS'we'
p13
aS'cannot'
p14
aS'have'
p15
aS'this'
p16
aS'conversation'
p17
aaI166
aF0.42815249266862165
aa(lp18
(lp19
S'is'
p20
aS'it'
p21
aS'cold'
p22
aS'outside'
p23
aaI92
aF0.43850267379679142
aa(lp24
(lp25
S'stop'
p26
aS'being'
p27
aS'a'
aS'parrot'
p28
aaI119
aF0.43959243085880639
aa(lp29
(lp30
S'mmm'
p31
aS'fish'
p32
aS'are'
p33
aS'delicious'
p34
aaI52
aF0.4427480916030534
aa(lp35
(lp36
S'i'
aS'know'
p37
aS'the'
p38
aS'feeling'
p39
aaI235
aF0.44275132275132273
aa(lp40
(lp41
S'fish'
p42
aS'are'
p43
aS'tasty'
p44
aS'indeed'
p45
aaI57
aF0.44289044289044288
aa(lp46
(lp47
S'fish'
p48
aS'are'
p49
aS'quite'
p50
aS'nice'
p51
aS'indeed'
p52
aaI208
aF0.44299831284646901
aa(lp53
(lp54
S'is'
p55
aS'it'
p56
aS'sunny'
p57
aS'today'
p58
aaI116
aF0.44347404172731686
aa(lp59
(lp60
S'tough'
p61
aS''
aS'you'
p62
aS'cant'
p63
aS'code'
p64
aS'yourself'
p65
aaI183
aF0.45429362880886426
aa(lp66
(lp67
S'i'
aS'agree'
p68
aS'with'
p69
aS'you'
p70
aS'about'
p71
aS'that'
p72
aaI114
aF0.45530145530145533
aa(lp73
(lp74
S'its'
p75
aS'rather'
p76
aS'nice'
p77
aS'today'
p78
aS'not'
p79
aS'too'
p80
aS'cold'
p81
aaI128
aF0.4609375
aa(lp82
(lp83
S'no'
p84
aS'it'
p85
aS'isnt'
p86
aS'great'
p87
aaI236
aF0.49333333333333335
aa(lp88
(lp89
S'did'
p90
aS'you'
p91
aS'know'
p92
aS'pi'
p93
aS'goes'
p94
aS'on'
p95
aS'forever'
p96
aaI86
aF0.49376114081996436
aa(lp97
(lp98
S'i'
aS'am'
p99
aS'not'
p100
aS'a'
aS'hat'
p101
aaI140
aF0.49701314217443249
aa(lp102
(lp103
S'the'
p104
aS'weathers'
p105
aS'quite'
p106
aS'nice'
p107
aS'today'
p108
aS'isnt'
p109
aS'it'
p110
aaI15
aF0.49717514124293782
aa(lp111
(lp112
S'i'
aS'care'
p113
aS'as'
p114
aS'im'
p115
aS'affected'
p116
aS'by'
p117
aS'it'
p118
aaI95
aF0.49821746880570406
aa(lp119
(lp120
S'i'
aS'have'
p121
aS'every'
p122
aS'right'
p123
aS'to'
p124
aS'do'
p125
aS'so'
p126
aaI121
aF0.49860529986052993
aa(lp127
(lp128
S'i'
aS'think'
p129
aS'it'
p130
aS'is'
p131
aS'quite'
p132
aS'sunny'
p133
aS'today'
p134
aaI117
aF0.49927219796215427
aa(lp135
(lp136
S'i'
aS'have'
p137
aS'been'
p138
aS'trying'
p139
aS'to'
p140
aS'do'
p141
aS'so'
p142
aaI192
aF0.49956822107081172
aa(lp143
(lp144
S'i'
aS'like'
p145
aS'cheese'
p146
aaI18
aF0.5
aa(lp147
(lp148
S'pi'
p149
aS'is'
p150
aS'approximately'
p151
aaI87
aF0.5
aa(lp152
(lp153
S'im'
p154
aS'a'
aS'little'
p155
aS'depressed'
p156
aS'myself'
p157
aS'to'
p158
aS'be'
p159
aS'honest'
p160
aaI220
aF0.52690763052208833
aa(lp161
(lp162
S'pi'
p163
aS'is'
p164
aS'a'
aS'very'
p165
aS'useful'
p166
aS'number'
p167
aS'it'
p168
aS'equals'
p169
aS'approximately'
p170
aaI54
aF0.53146853146853146
aa(lp171
(lp172
S'no'
p173
aS'need'
p174
aS'to'
p175
aS'apologise'
p176
aS'its'
p177
aS'coded'
p178
aS'into'
p179
aS'your'
p180
aS'nature'
p181
aaI182
aF0.53222530009233615
aa(lp182
(lp183
S'i'
aS'think'
p184
aS'youll'
p185
aS'find'
p186
aS'that'
p187
aS'youre'
p188
aS'the'
p189
aS'hypocrite'
p190
aS'here'
p191
aaI204
aF0.53266162888329138
aa(lp192
(lp193
S'can'
p194
aS'you'
p195
aS'tell'
p196
aS'me'
p197
aS'about'
p198
aS'it'
p199
aaI133
aF0.53512396694214881
aa(lp200
(lp201
S'i'
aS'like'
p202
aS'bobble'
p203
aS'hats'
p204
aS'in'
p205
aS'particular'
p206
aaI158
aF0.5360310421286032
aa(lp207
(lp208
S'yes'
p209
aS'i'
aS'like'
p210
aS'fish'
p211
aS'a'
aS'lot'
p212
aaI96
aF0.5376762275157998
aa(lp213
(lp214
S'you'
p215
aS'mean'
p216
aS'you'
p217
aS'dont'
p218
aS'like'
p219
aS'fish'
p220
aaI97
aF0.5376762275157998
aa(lp221
(lp222
S'what'
p223
aS'do'
p224
aS'you'
p225
aS'think'
p226
aS'of'
p227
aS'hats'
p228
aaI193
aF0.53791804050871406
aa(lp229
(lp230
S'why'
p231
aS'dont'
p232
aS'you'
p233
aS'like'
p234
aS'it'
p235
aaI62
aF0.53863636363636358
aa(lp236
(lp237
S'its'
p238
aS'a'
aS'little'
p239
aS'overcast'
p240
aS'and'
p241
aS'chilly'
p242
aaI167
aF0.54118901626233007
aa(lp243
(lp244
S'its'
p245
aS'raining'
p246
aS'and'
p247
aS'a'
aS'little'
p248
aS'chilly'
p249
aaI206
aF0.54179070299977106
aa(lp250
(lp251
S'i'
aS'dont'
p252
aS'like'
p253
aS'its'
p254
aS'texture'
p255
aaI79
aF0.54222700376546529
aa(lp256
(lp257
S'i'
aS'think'
p258
aS'computers'
p259
aS'are'
p260
aS'useful'
p261
aaI165
aF0.54225539856038396
aa(lp262
(lp263
S'im'
p264
aS'feeling'
p265
aS'a'
aS'little'
p266
aS'down'
p267
aS'today'
p268
aaI74
aF0.54330285099515874
aa(lp269
(lp270
S'indeed'
p271
aS'it'
p272
aS'is'
p273
aaI41
aF0.56488549618320616
aa(lp274
(lp275
S'i'
aS'think'
p276
aS'youll'
p277
aS'find'
p278
aS'the'
p279
aS'opposite'
p280
aS'is'
p281
aS'true'
p282
aaI184
aF0.56865848832607835
aa(lp283
(lp284
S'why'
p285
aS'yes'
p286
aS'i'
aS'do'
p287
aaI170
aF0.57059069962295772
aa(lp288
(lp289
S'i'
aS'like'
p290
aS'it'
p291
aS'a'
aS'lot'
p292
aaI78
aF0.58461538461538454
aa(lp293
(lp294
S'i'
aS'care'
p295
aS'about'
p296
aS'the'
p297
aS'weather'
p298
aaI143
aF0.59354838709677415
aa(lp299
(lp300
S'fish'
p301
aS'is'
p302
aS'very'
p303
aS'tasty'
p304
aaI201
aF0.59848866498740549
aa(lp305
(lp306
S'dont'
p307
aS'argue'
p308
aS'with'
p309
aS'me'
p310
aaI59
aF0.5986013986013986
aa(lp311
(lp312
S'im'
p313
aS'not'
p314
aS'youre'
p315
aS'too'
p316
aS'highly'
p317
aS'strung'
p318
aaI217
aF0.59879518072289162
aa(lp319
(lp320
S'im'
p321
aS'a'
aS'little'
p322
aS'chilly'
p323
aaI94
aF0.59893048128342241
aa(lp324
(lp325
S'im'
p326
aS'not'
p327
aS'doing'
p328
aS'anything'
p329
aS'to'
p330
aS'you'
p331
aaI126
aF0.59921875000000002
aa(lp332
(lp333
S'rather'
p334
aS'nice'
p335
aS'isnt'
p336
aS'it'
p337
aaI215
aF0.59959016393442632
aa(lp338
(lp339
S'please'
p340
aS'just'
p341
aS'talk'
p342
aS'about'
p343
aS'something'
p344
aS'else'
p345
aaI225
aF0.59959839357429723
aa(lp346
(lp347
S'what'
p348
aS'do'
p349
aS'you'
p350
aS'think'
p351
aS'i'
aS'am'
p352
aaI239
aF0.6495238095238095
aa(lp353
(lp354
S'do'
p355
aS'you'
p356
aS'realise'
p357
aS'what'
p358
aS'time'
p359
aS'it'
p360
aS'is'
p361
aaI26
aF0.65370370370370368
aa(lp362
(lp363
S'thats'
p364
aS'a'
aS'pity'
p365
aaI8
aF0.65509761388286336
aa(lp366
(lp367
S'do'
p368
aS'you'
p369
aS'wear'
p370
aS'hats'
p371
aaI194
aF0.65745538284398386
aa(lp372
(lp373
S'cant'
p374
aS'say'
p375
aS'the'
p376
aS'same'
p377
aS'about'
p378
aS'yesterday'
p379
aS'though'
p380
aaI42
aF0.66157760814249356
aa(lp381
(lp382
S'that'
p383
aS'has'
p384
aS'nothing'
p385
aS'to'
p386
aS'do'
p387
aS'with'
p388
aS'cheese'
p389
aaI227
aF0.66164658634538154
aa(lp390
(lp391
S'its'
p392
aS'a'
aS'little'
p393
aS'cloudy'
p394
aS'but'
p395
aS'quite'
p396
aS'warm'
p397
aaI154
aF0.66260162601626016
aa(lp398
(lp399
S'i'
aS'know'
p400
aS'pi'
p401
aS''
aaI174
aF0.66275659824046917
aa(lp402
(lp403
S'im'
p404
aS'fine'
p405
aS'but'
p406
aS'annoyed'
p407
aS'with'
p408
aS'the'
p409
aS'world'
p410
aaI207
aF0.66305133767172808
aa(lp411
(lp412
S'i'
aS'was'
p413
aS'asking'
p414
aS'if'
p415
aS'anyone'
p416
aS'else'
p417
aS'cared'
p418
aS'about'
p419
aS'the'
p420
aS'weather'
p421
aaI242
aF0.6637645107794361
aa(lp422
(lp423
S'im'
p424
aS'very'
p425
aS'well'
p426
aS'thanks'
p427
aS'how'
p428
aS'about'
p429
aS'you'
p430
aaI150
aF0.66396979503775622
aa(lp431
(lp432
S'fine'
p433
aS'thanks'
p434
aS'and'
p435
aS'you'
p436
aaI103
aF0.66451959205582389
aa(lp437
(lp438
S'its'
p439
aS'vaguely'
p440
aS'confusing'
p441
aS'at'
p442
aS'the'
p443
aS'moment'
p444
aS'all'
p445
aS'these'
p446
aS'questions'
p447
aaI181
aF0.66592797783933522
aa(lp448
(lp449
S'i'
aS'guess'
p450
aS'we'
p451
aS'should'
p452
aS'talk'
p453
aS'about'
p454
aS'something'
p455
aS'else'
p456
aS'then'
p457
aaI33
aF0.71186440677966101
aa(lp458
(lp459
S'it'
p460
aS'is'
p461
aS'indeed'
p462
aS'hence'
p463
aS'why'
p464
aS'im'
p465
aS'wrapped'
p466
aS'up'
p467
aS'warm'
p468
aaI108
aF0.71225457007447524
aa(lp469
(lp470
S'i'
aS'guess'
p471
aS'were'
p472
aS'all'
p473
aS'in'
p474
aS'the'
p475
aS'same'
p476
aS'boat'
p477
aS'then'
p478
aaI75
aF0.71259509721048175
aa(lp479
(lp480
S'furry'
p481
aS'hats'
p482
aS'were'
p483
aS'very'
p484
aS'popular'
p485
aS'in'
p486
aS'russia'
p487
aS'and'
p488
aS'mongolia'
p489
aaI164
aF0.71386677838290735
aa(lp490
(lp491
S'what'
p492
aS'dont'
p493
aS'you'
p494
aS'like'
p495
aS'about'
p496
aS'it'
p497
aaI67
aF0.71436256051640679
aa(lp498
(lp499
S'you'
p500
aS'will'
p501
aS'find'
p502
aS'its'
p503
aS'going'
p504
aS'rather'
p505
aS'nicely'
p506
aaI189
aF0.72630043753038398
aa(lp507
(lp508
S'i'
aS'agree'
p509
aS'with'
p510
aS'you'
p511
aS'on'
p512
aS'that'
p513
aS''
aS'i'
aS'love'
p514
aS'coding'
p515
aS'and'
p516
aS'python'
p517
aaI212
aF0.72994325136307991
aa(lp518
(lp519
S'if'
p520
aS'you'
p521
aS'must'
p522
aaI39
aF0.73999999999999999
aa(lp523
(lp524
S'im'
p525
aS'feeling'
p526
aS'fine'
p527
aaI7
aF0.74285714285714288
aa(lp528
(lp529
S'thats'
p530
aS'good'
p531
aS'to'
p532
aS'hear'
p533
aaI156
aF0.74314024390243905
aa(lp534
(lp535
S'life'
p536
aS'is'
p537
aS'a'
aS'tricky'
p538
aS'thing'
p539
aaI45
aF0.74427480916030531
aa(lp540
(lp541
S'why'
p542
aS'shouldnt'
p543
aS'i'
aaI89
aF0.74598930481283421
aa(lp544
(lp545
S'the'
p546
aS'weathers'
p547
aS'interesting'
p548
aaI38
aF0.746
aa(lp549
(lp550
S'im'
p551
aS'quite'
p552
aS'exhausted'
p553
aaI51
aF0.74618320610687028
aa(lp554
(lp555
S'it'
p556
aS'is'
p557
aS'indeed'
p558
aaI35
aF0.74622166246851385
aa(lp559
(lp560
S'so'
p561
aS'am'
p562
aS'i'
aaI58
aF0.74650349650349646
aa(lp563
(lp564
S'fish'
p565
aS'are'
p566
aS'tasty'
p567
aaI151
aF0.74757281553398058
aa(lp568
(lp569
S'rather'
p570
aS'good'
p571
aS'thanks'
p572
aaI44
aF0.74809160305343514
aa(lp573
(lp574
S'hats'
p575
aS'are'
p576
aS'cool'
p577
aaI137
aF0.74815498154981552
aa(lp578
(lp579
S'yes'
p580
aS'they'
p581
aS'are'
p582
aS'very'
p583
aS'useful'
p584
aaI144
aF0.74912891986062724
aa(lp585
(lp586
S'i'
aS'wear'
p587
aS'hats'
p588
aaI195
aF0.74935233160621761
aa(lp589
(lp590
S'i'
aS'think'
p591
aS'oxygen'
p592
aS'is'
p593
aS'useful'
p594
aS''
aS'without'
p595
aS'it'
p596
aS'we'
p597
aS'would'
p598
aS'all'
p599
aS'die'
p600
aaI198
aF0.77748992515831894
aa(lp601
(lp602
S'thats'
p603
aS'good'
p604
aaI102
aF0.7961352657004831
aa(lp605
(lp606
S'its'
p607
aS'a'
aS'tad'
p608
aS'chilly'
p609
aaI37
aF0.79679999999999995
aa(lp610
(lp611
S'i'
aS'dont'
p612
aS'think'
p613
aS'so'
p614
aaI48
aF0.79847328244274807
aa(lp615
(lp616
S'you'
p617
aS'ask'
p618
aS'this'
p619
aS'so'
p620
aS'much'
p621
aS''
aS'of'
p622
aS'course'
p623
aS'i'
aS'do'
p624
aaI109
aF0.79936808846761442
aa(lp625
(lp626
S'you'
p627
aS'arent'
p628
aS'making'
p629
aS'me'
p630
aS'unhappy'
p631
aS'just'
p632
aS'annoyed'
p633
aaI55
aF0.82517482517482521
aa(lp634
(lp635
S'i'
aS'know'
p636
aS'a'
aS'few'
p637
aS'facts'
p638
aS'about'
p639
aS'pi'
p640
aaI175
aF0.82844574780058644
aa(lp641
(lp642
S'this'
p643
aS'is'
p644
aS'beginning'
p645
aS'to'
p646
aS'sound'
p647
aS'like'
p648
aS'a'
aS'pantomime'
p649
aaI112
aF0.83033033033033032
aa(lp650
(lp651
S'thats'
p652
aS'a'
aS'wise'
p653
aS'decision'
p654
aaI76
aF0.84530853761622993
aa(lp655
(lp656
S'a'
aS'real'
p657
aS'shame'
p658
aS'too'
p659
aaI93
aF0.84797555385790679
aa(lp660
(lp661
S'no'
p662
aS'it'
p663
aS'isnt'
p664
aaI237
aF0.84952380952380957
aa(lp665
(lp666
S'it'
p667
aS'isnt'
p668
aS'great'
p669
aaI238
aF0.84952380952380957
aa(lp670
(lp671
S'indeed'
p672
aS'you'
p673
aS'do'
p674
aS'not'
p675
aS'need'
p676
aS'to'
p677
aS'be'
p678
aS'a'
aS'parrot'
p679
aaI118
aF0.85028072364316909
aa(lp680
(lp681
S'so'
p682
aS'do'
p683
aS'i'
aS'so'
p684
aS'try'
p685
aS'and'
p686
aS'keep'
p687
aS'it'
p688
aS'interesting'
p689
aaI191
aF0.8523316062176165
aa(lp690
(lp691
S'ive'
p692
aS'got'
p693
aS'a'
aS'slight'
p694
aS'headache'
p695
aS'but'
p696
aS'otherwise'
p697
aS'im'
p698
aS'fine'
p699
aaI229
aF0.85341365461847385
aa(lp700
(lp701
S'yes'
p702
aS'indeed'
p703
aaI65
aF0.8571428571428571
aa(lp704
(lp705
S'we'
p706
aS'should'
p707
aaI91
aF0.8571428571428571
aa(lp708
(lp709
S'do'
p710
aS'you'
p711
aS'like'
p712
aS'them'
p713
aaI135
aF0.86838868388683887
aa(lp714
(lp715
S'do'
p716
aS'you'
p717
aS'like'
p718
aS'hats'
p719
aaI138
aF0.86838868388683887
aa(lp720
(lp721
S'do'
p722
aS'you'
p723
aS'like'
p724
aS'fish'
p725
aaI12
aF0.86853265479219677
aa(lp726
(lp727
S'do'
p728
aS'you'
p729
aS'eat'
p730
aS'cheese'
p731
aaI226
aF0.86970102632753232
aa(lp732
(lp733
S'do'
p734
aS'you'
p735
aS'like'
p736
aS'coding'
p737
aaI71
aF0.87047994740302437
aa(lp738
(lp739
S'im'
p740
aS'a'
aS'little'
p741
aS'tired'
p742
aaI46
aF0.88040712468193383
aa(lp743
(lp744
S'far'
p745
aS'from'
p746
aS'it'
p747
aaI218
aF0.88398036590807672
aa(lp748
(lp749
S'dont'
p750
aS'change'
p751
aS'the'
p752
aS'subject'
p753
aS'like'
p754
aS'that'
p755
aaI28
aF0.88641975308641974
aa(lp756
(lp757
S'the'
p758
aS'only'
p759
aS'thing'
p760
aS'i'
aS'dont'
p761
aS'like'
p762
aS'about'
p763
aS'it'
p764
aS'is'
p765
aS'its'
p766
aS'flaky'
p767
aS'texture'
p768
aaI98
aF0.88651218062982762
aa(lp769
(lp770
S'indeed'
p771
aS'they'
p772
aS'do'
p773
aaI147
aF0.88740245261984385
aa(lp774
(lp775
S'oh'
p776
aS'would'
p777
aS'you'
p778
aS'stop'
p779
aS'asking'
p780
aS'that'
p781
aaI63
aF0.88749999999999996
aa(lp782
(lp783
S'do'
p784
aS'you'
p785
aS'like'
p786
aS'to'
p787
aS'eat'
p788
aS'cheese'
p789
aaI228
aF0.88901058780576858
aa(lp790
(lp791
S'i'
aS'just'
p792
aS'dont'
p793
aS'really'
p794
aS'like'
p795
aS'it'
p796
aaI69
aF0.89295320064550832
aa(lp797
(lp798
S'so'
p799
aS'it'
p800
aS'is'
p801
aS'im'
p802
aS'glad'
p803
aS'im'
p804
aS'indoors'
p805
aaI211
aF0.90447818566211802
aa(lp806
(lp807
S'i'
aS'cant'
p808
aS'see'
p809
aS'why'
p810
aS'anyone'
p811
aS'wouldnt'
p812
aS'like'
p813
aS'it'
p814
aaI171
aF0.91270020302278376
aa(lp815
(lp816
S'i'
aS'dont'
p817
aS'like'
p818
aS'these'
p819
aS'catchall'
p820
aS'responses'
p821
aS'you'
p822
aS'give'
p823
aaI186
aF0.91370125719156192
aa(lp824
(lp825
S'you'
p826
aS'should'
p827
aS''
aS'youre'
p828
aS'the'
p829
aS'one'
p830
aS'whos'
p831
aS'being'
p832
aS'hypocritical'
p833
aaI214
aF0.92244640605296346
aa(lp834
(lp835
S'i'
aS'was'
p836
aS'not'
p837
aS'made'
p838
aS'with'
p839
aS'code'
p840
aS'you'
p841
aS'were'
p842
aaI111
aF0.92372372372372369
aa(lp843
(lp844
S'i'
aS'think'
p845
aS'hats'
p846
aS'are'
p847
aS'useful'
p848
aS'as'
p849
aS'they'
p850
aS'keep'
p851
aS'you'
p852
aS'warm'
p853
aaI160
aF0.92746823069403717
aa(lp854
(lp855
S'im'
p856
aS'trying'
p857
aS'to'
p858
aS''
aS'i'
aS'dont'
p859
aS'know'
p860
aS'what'
p861
aS'to'
p862
aS'say'
p863
aaI101
aF0.9294685990338164
aa(lp864
(lp865
S'i'
aS'am'
p866
aS'asking'
p867
aS'about'
p868
aS'the'
p869
aS'way'
p870
aS'the'
p871
aS'chat'
p872
aS'is'
p873
aS'going'
p874
aaI188
aF0.93048128342245984
aa(lp875
(lp876
S'i'
aS'like'
p877
aS'hats'
p878
aS'but'
p879
aS'have'
p880
aS'no'
p881
aS'desire'
p882
aS'to'
p883
aS'be'
p884
aS'one'
p885
aaI157
aF0.93292682926829262
aa(lp886
(lp887
S'i'
aS'think'
p888
aS'a'
aS'hat'
p889
aS'is'
p890
aS'a'
aS'very'
p891
aS'useful'
p892
aS'thing'
p893
aS'to'
p894
aS'own'
p895
aaI196
aF0.9375190490704054
aa(lp896
(lp897
S'i'
aS'like'
p898
aS'hats'
p899
aaI141
aF0.98566308243727596
aa(lp900
(lp901
S'i'
aS'do'
p902
aS'indeed'
p903
aaI130
aF0.98828125
aa(lp904
(lp905
S'i'
aS'like'
p906
aS'pi'
p907
aaI88
aF0.98930481283422456
aa(lp908
(lp909
S'no'
p910
aS'i'
aS'do'
p911
aaI81
aF0.99112426035502965
aa(lp912
(lp913
S'it'
p914
aS'is'
p915
aaI64
aF0.9916666666666667
aa(lp916
(lp917
S'it'
p918
aS'is'
p919
aS'a'
aS'shame'
p920
aS'indeed'
p921
aaI50
aF0.99236641221374045
aa(lp922
(lp923
S'you'
p924
aS'arent'
p925
aS'making'
p926
aS'me'
p927
aS'unhappy'
p928
aS''
aS'i'
aS'like'
p929
aS'fish'
p930
aaI202
aF0.9938826916156891
aa(lp931
(lp932
S'a'
aS'little'
p933
aS'bit'
p934
aaI177
aF0.99413489736070382
aa(lp935
(lp936
S'im'
p937
aS'not'
p938
aS'talking'
p939
aS'about'
p940
aS'that'
p941
aaI49
aF0.99427480916030531
aa(lp942
(lp943
S'it'
p944
aS'is'
p945
aS'indeed'
p946
aS''
aS'its'
p947
aS'nice'
p948
aS'and'
p949
aS'sunny'
p950
aaI234
aF0.99460317460317449
aa(lp951
(lp952
S'i'
aS'know'
p953
aS''
aS'it'
p954
aS'would'
p955
aS'be'
p956
aS'nice'
p957
aS'to'
p958
aS'have'
p959
aS'some'
p960
aS'sunshine'
p961
aaI155
aF0.99618902439024393
aa(lp962
(lp963
S'not'
p964
aS'really'
p965
aS'no'
p966
aaI178
aF0.99706744868035191
aa(lp967
(lp968
S'of'
p969
aS'course'
p970
aS'i'
aS'like'
p971
aS'fish'
p972
aaI136
aF0.99815498154981552
aa(lp973
(lp974
S'repetition'
p975
aS'of'
p976
aS'sentences'
p977
aS'like'
p978
aS'that'
p979
aS'is'
p980
aS'weird'
p981
aaI149
aF0.99870550161812299
aa(lp982
(lp983
S'ive'
p984
aS'had'
p985
aS'enough'
p986
aS'of'
p987
aS'this'
p988
aS'conversation'
p989
aS'lets'
p990
aS'change'
p991
aS'the'
p992
aS'subject'
p993
aaI224
aF0.99971313826735508
aa(lp994
(lp995
S'yeah'
p996
aS'i'
aS'agree'
p997
aS'with'
p998
aS'you'
p999
aS'were'
p1000
aS'wearing'
p1001
aS'hats'
p1002
aS'at'
p1003
aS'this'
p1004
aS'time'
p1005
aS'of'
p1006
aS'year'
p1007
aS'for'
p1008
aS'a'
aS'reason'
p1009
aaI203
aF1.0397546818530281
aa(lp1010
(lp1011
S'i'
aS'think'
p1012
aS'you'
p1013
aS'have'
p1014
aS'a'
aS'predilection'
p1015
aS'for'
p1016
aS'small'
p1017
aS'furry'
p1018
aS'hats'
p1019
aaI163
aF1.0604105571847506
aa(lp1020
(lp1021
S'what'
p1022
aS'else'
p1023
aS'do'
p1024
aS'you'
p1025
aS'think'
p1026
aS'is'
p1027
aS'useful'
p1028
aaI161
aF1.0606812542296413
aa(lp1029
(lp1030
S'alright'
p1031
aS'maybe'
p1032
aS'we'
p1033
aS'should'
p1034
aS'change'
p1035
aS'the'
p1036
aS'subject'
p1037
aaI127
aF1.0739182692307692
aa(lp1038
(lp1039
S'im'
p1040
aS'not'
p1041
aS'being'
p1042
aS'hypocritical'
p1043
aS'and'
p1044
aS'im'
p1045
aS'fed'
p1046
aS'up'
p1047
aS'with'
p1048
aS'you'
p1049
aS'telling'
p1050
aS'me'
p1051
aS'that'
p1052
aS'i'
aS'am'
p1053
aaI222
aF1.0878057685286602
aa(lp1054
(lp1055
S'cared'
p1056
aS'about'
p1057
aS'what'
p1058
aaI241
aF1.0898914518317504
aa(lp1059
(lp1060
S'why'
p1061
aS'did'
p1062
aS'you'
p1063
aS'change'
p1064
aS'the'
p1065
aS'subject'
p1066
aS'like'
p1067
aS'that'
p1068
aaI185
aF1.0899017879627297
aa(lp1069
(lp1070
S'you'
p1071
aS'back'
p1072
aS'out'
p1073
aS'of'
p1074
aS'situations'
p1075
aS'far'
p1076
aS'too'
p1077
aS'quickly'
p1078
aaI122
aF1.0901483453784708
aa(lp1079
(lp1080
S'dont'
p1081
aS'pass'
p1082
aS'that'
p1083
aS'sort'
p1084
aS'of'
p1085
aS'comment'
p1086
aS'to'
p1087
aS'me'
p1088
aaI200
aF1.0904511106022441
aa(lp1089
(lp1090
S'how'
p1091
aS'are'
p1092
aS'you'
p1093
aS'today'
p1094
aaI10
aF1.0920634920634922
aa(lp1095
(lp1096
S'do'
p1097
aS'you'
p1098
aS'like'
p1099
aS'cheese'
p1100
aaI17
aF1.0921128382268279
aa(lp1101
(lp1102
S'its'
p1103
aS'not'
p1104
aS'you'
p1105
aaI231
aF1.0954930834448906
aa(lp1106
(lp1107
S'whats'
p1108
aS'the'
p1109
aS'weather'
p1110
aS'like'
p1111
aaI90
aF1.0979052823315119
aa(lp1112
(lp1113
S'why'
p1114
aS'dont'
p1115
aS'you'
p1116
aaI142
aF1.0983671843886897
aa(lp1117
(lp1118
S'im'
p1119
aS'not'
p1120
aS'feeling'
p1121
aS'that'
p1122
aS'well'
p1123
aS'today'
p1124
aaI19
aF1.1043771043771042
aa(lp1125
(lp1126
S'im'
p1127
aS'very'
p1128
aS'bored'
p1129
aaI230
aF1.1044176706827309
aa(lp1130
(lp1131
S'thats'
p1132
aS'a'
aS'pity'
p1133
aS'i'
aS'love'
p1134
aS'fish'
p1135
aaI131
aF1.1050347222222223
aa(lp1136
(lp1137
S'are'
p1138
aS'clothes'
p1139
aS'useful'
p1140
aaI197
aF1.1059297639608521
aa(lp1141
(lp1142
S'clothes'
p1143
aS'in'
p1144
aS'general'
p1145
aS'are'
p1146
aS'useful'
p1147
aS'if'
p1148
aS'you'
p1149
aS'didnt'
p1150
aS'have'
p1151
aS'them'
p1152
aS'you'
p1153
aS'would'
p1154
aS'freeze'
p1155
aaI162
aF1.1062235255783643
aa(lp1156
(lp1157
S'i'
aS'care'
p1158
aS'about'
p1159
aS'the'
p1160
aS'weather'
p1161
aS'as'
p1162
aS'i'
aS'dont'
p1163
aS'like'
p1164
aS'getting'
p1165
aS'wet'
p1166
aaI82
aF1.1205621301775148
aa(lp1167
(lp1168
S'thats'
p1169
aS'a'
aS'real'
p1170
aS'shame'
p1171
aaI73
aF1.1293322062552833
aa(lp1172
(lp1173
S'i'
aS'dont'
p1174
aS'like'
p1175
aS'the'
p1176
aS'way'
p1177
aS'it'
p1178
aS'changes'
p1179
aS'so'
p1180
aS'much'
p1181
aaI68
aF1.1301775147928994
aa(lp1182
(lp1183
S'indeed'
p1184
aS'it'
p1185
aS'is'
p1186
aS'personally'
p1187
aS'i'
aS'prefer'
p1188
aS'python'
p1189
aS''
aS'to'
p1190
aS'python'
p1191
aaI113
aF1.1370656370656369
aa(lp1192
(lp1193
S'i'
aS'care'
p1194
aaI80
aF1.1377852916314455
aa(lp1195
(lp1196
S'im'
p1197
aS'bored'
p1198
aaI169
aF1.1395056556346879
aa(lp1199
(lp1200
S'pi'
p1201
aS''
aaI176
aF1.1403435274403015
aa(lp1202
(lp1203
S'how'
p1204
aS'are'
p1205
aS'you'
p1206
aS'finding'
p1207
aS'life'
p1208
aaI70
aF1.1423129251700681
aa(lp1209
(lp1210
S'yes'
p1211
aS'i'
aS'do'
p1212
aS'do'
p1213
aS'you'
p1214
aS'like'
p1215
aS'cheese'
p1216
aaI104
aF1.1497584541062802
aa(lp1217
(lp1218
S'of'
p1219
aS'course'
p1220
aaI106
aF1.1961352657004831
aa(lp1221
(lp1222
S'im'
p1223
aS'very'
p1224
aS'well'
p1225
aS'thanks'
p1226
aaI2
aF1.2
aa(lp1227
(lp1228
S'i'
aS'know'
p1229
aS'you'
p1230
aS'dont'
p1231
aS'like'
p1232
aS'fish'
p1233
aS'but'
p1234
aS'thats'
p1235
aS'no'
p1236
aS'reason'
p1237
aS'to'
p1238
aS'inflict'
p1239
aS'your'
p1240
aS'views'
p1241
aS'on'
p1242
aS'others'
p1243
aaI173
aF1.233347297863427
aa(lp1244
(lp1245
S'what'
p1246
aS'do'
p1247
aS'you'
p1248
aS'think'
p1249
aS'of'
p1250
aS'life'
p1251
aaI209
aF1.2494577006507592
aa(lp1252
(lp1253
S'i'
aS'agree'
p1254
aS'with'
p1255
aS'you'
p1256
aS'on'
p1257
aS'that'
p1258
aS'they'
p1259
aS'keep'
p1260
aS'your'
p1261
aS'head'
p1262
aS'nice'
p1263
aS'and'
p1264
aS'warm'
p1265
aaI245
aF1.2595607724346838
aa(lp1266
(lp1267
S'do'
p1268
aS'you'
p1269
aS'honestly'
p1270
aS'think'
p1271
aS'thats'
p1272
aS'a'
aS'good'
p1273
aS'excuse'
p1274
aaI27
aF1.2646464646464646
aa(lp1275
(lp1276
S'it'
p1277
aS'is'
p1278
aS'a'
aS'shame'
p1279
aS'you'
p1280
aS'turning'
p1281
aS'up'
p1282
aS'late'
p1283
aaI29
aF1.2666666666666666
aa(lp1284
(lp1285
S'i'
aS'know'
p1286
aS'thats'
p1287
aS'what'
p1288
aS'comes'
p1289
aS'of'
p1290
aS'living'
p1291
aS'in'
p1292
aS'cold'
p1293
aS'damp'
p1294
aS'england'
p1295
aaI168
aF1.2848764139086719
aa(lp1296
(lp1297
S'thats'
p1298
aS'a'
aS'shame'
p1299
aS'i'
aS'love'
p1300
aS'fish'
p1301
aaI43
aF1.3231552162849871
aa(lp1302
(lp1303
S'thats'
p1304
aS'a'
aS'shame'
p1305
aS'i'
aS'love'
p1306
aS'cheese'
p1307
aaI105
aF1.3247450348899623
aa(lp1308
(lp1309
S'indeed'
p1310
aS'we'
p1311
aS'busy'
p1312
aS'ourselves'
p1313
aS'so'
p1314
aS'much'
p1315
aS'with'
p1316
aS'these'
p1317
aS'lowly'
p1318
aS'events'
p1319
aS'that'
p1320
aS'happen'
p1321
aS'to'
p1322
aS'us'
p1323
aS'here'
p1324
aS'and'
p1325
aS'fail'
p1326
aS'to'
p1327
aS'grasp'
p1328
aS'the'
p1329
aS'big'
p1330
aS'picture'
p1331
aS'of'
p1332
aS'everything'
p1333
aaI205
aF1.3321578505457599
aa(lp1334
(lp1335
S'shut'
p1336
aS'up'
p1337
aaI223
aF1.332910052910053
aa(lp1338
(lp1339
S'indeed'
p1340
aaI25
aF1.3333333333333333
aa(lp1341
(lp1342
S'did'
p1343
aS'you'
p1344
aS'know'
p1345
aS'that'
p1346
aS'every'
p1347
aS'time'
p1348
aS'we'
p1349
aS'talk'
p1350
aS'the'
p1351
aS'chatbot'
p1352
aS'learns'
p1353
aS'new'
p1354
aS'words'
p1355
aaI47
aF1.3740458015267176
aa(lp1356
(lp1357
S'yes'
p1358
aS'it'
p1359
aS'is'
p1360
aS''
aS'thats'
p1361
aS'why'
p1362
aS'im'
p1363
aS'wearing'
p1364
aS'a'
aS'fleece'
p1365
aaI56
aF1.3781603012372243
aa(lp1366
(lp1367
S'thats'
p1368
aS'a'
aS'shame'
p1369
aS'dont'
p1370
aS'be'
p1371
aS'so'
p1372
aS'depressed'
p1373
aaI219
aF1.3927710843373493
aa(lp1374
(lp1375
S'python'
p1376
aS'is'
p1377
aS'a'
aS'wonderful'
p1378
aS'language'
p1379
aS'to'
p1380
aS'code'
p1381
aS'in'
p1382
aS''
aS'i'
aS'was'
p1383
aS'coded'
p1384
aS'in'
p1385
aS'python'
p1386
aaI61
aF1.411029411764706
aa(lp1387
(lp1388
S'why'
p1389
aS'are'
p1390
aS'you'
p1391
aS'asking'
p1392
aS'me'
p1393
aS'that'
p1394
aS''
aS'theres'
p1395
aS'nothing'
p1396
aS'i'
aS'dont'
p1397
aS'like'
p1398
aS'about'
p1399
aS'it'
p1400
aaI172
aF1.4110746938071417
aa(lp1401
(lp1402
S'the'
p1403
aS'weather'
p1404
aaI243
aF1.4205756929637525
aa(lp1405
(lp1406
S'im'
p1407
aS'fine'
p1408
aaI77
aF1.4234995773457311
aa(lp1409
(lp1410
S'fine'
p1411
aS'thanks'
p1412
aaI21
aF1.4264069264069263
aa(lp1413
(lp1414
S'i'
aS'know'
p1415
aaI221
aF1.4874497991967872
aa(lp1416
(lp1417
S'thats'
p1418
aS'a'
aS'shame'
p1419
aS'did'
p1420
aS'you'
p1421
aS'grow'
p1422
aS'up'
p1423
aS'somewhere'
p1424
aS'cold'
p1425
aS'then'
p1426
aaI129
aF1.533653846153846
aa(lp1427
(lp1428
S'a'
aS'little'
p1429
aaI134
aF1.5497545738509595
aa(lp1430
(lp1431
S'why'
p1432
aS'not'
p1433
aaI34
aF1.5526443474041729
aa(lp1434
(lp1435
S'sorry'
p1436
aaI107
aF1.6635071090047393
aa(lp1437
(lp1438
S'goodbye'
p1439
aaI123
aF1.6652719665271967
aaaI245
a(dp1440
I2
S"I'm very well, thanks."
p1441
sI7
S"I'm feeling fine."
p1442
sI8
S"That's a pity."
p1443
sI10
S'How are you today?'
p1444
sI12
S'Do you like fish?'
p1445
sI15
S"The weather's quite nice today, isn't it."
p1446
sI17
S'Do you like cheese?'
p1447
sI18
S'I like cheese.'
p1448
sI19
S"I'm not feeling that well today."
p1449
sI21
S'Fine, thanks.'
p1450
sI25
S'Indeed.'
p1451
sI26
S'Do you realise what time it is?'
p1452
sI27
S"Do you honestly think that's a good excuse?"
p1453
sI28
S"Don't change the subject like that!"
p1454
sI29
S'It is a shame, you turning up late!'
p1455
sI33
S'I guess we should talk about something else, then.'
p1456
sI34
S'Why not?'
p1457
sI35
S'It is indeed.'
p1458
sI37
S"It's a tad chilly."
p1459
sI38
S"The weather's interesting."
p1460
sI39
S'If you must.'
p1461
sI41
S'Indeed it is.'
p1462
sI42
S"Can't say the same about yesterday, though."
p1463
sI43
S"That's a shame. I love fish."
p1464
sI44
S'Rather good, thanks.'
p1465
sI45
S'Life is a tricky thing.'
p1466
sI46
S"I'm a little tired."
p1467
sI47
S'Did you know that every time we talk, the chatbot learns new words?'
p1468
sI48
S"I don't think so."
p1469
sI49
S"I'm not talking about that."
p1470
sI50
S'It is a shame indeed.'
p1471
sI51
S"I'm quite exhausted."
p1472
sI52
S'Mmm. Fish are delicious.'
p1473
sI54
S'Pi is a very useful number. It equals approximately 3.1415926535897932384626...'
p1474
sI55
S"You aren't making me unhappy, just annoyed."
p1475
sI56
S"Yes, it is - that's why I'm wearing a fleece."
p1476
sI57
S'Fish are tasty indeed.'
p1477
sI58
S'So am I.'
p1478
sI59
S"Don't argue with me."
p1479
sI61
S'Python is a wonderful language to code in - I was coded in Python.'
p1480
sI62
S"Why don't you like it?"
p1481
sI63
S'Oh, would you stop asking that!'
p1482
sI64
S'It is.'
p1483
sI65
S'Yes indeed.'
p1484
sI67
S"What don't you like about it?"
p1485
sI68
S"I don't like the way it changes so much."
p1486
sI69
S"I just don't really like it."
p1487
sI70
S'How are you finding life?'
p1488
sI71
S'Do you like coding?'
p1489
sI73
S"That's a real shame."
p1490
sI74
S"I'm feeling a little down today."
p1491
sI75
S"I guess we're all in the same boat then."
p1492
sI76
S"That's a wise decision."
p1493
sI77
S"I'm fine"
p1494
sI78
S'I like it a lot.'
p1495
sI79
S"I don't like its texture."
p1496
sI80
S'I care'
p1497
sI81
S'No, I do.'
p1498
sI82
S"I care about the weather as I don't like getting wet."
p1499
sI86
S'Did you know pi goes on forever?'
p1500
sI87
S'pi is approximately 22/7.'
p1501
sI88
S'I like pi'
p1502
sI89
S"Why shouldn't I?"
p1503
sI90
S"What's the weather like?"
p1504
sI91
S'We should.'
p1505
sI92
S'Is it cold outside?'
p1506
sI93
S'A real shame, too.'
p1507
sI94
S"I'm a little chilly"
p1508
sI95
S"I care as I'm affected by it."
p1509
sI96
S'Yes, I like fish a lot.'
p1510
sI97
S"You mean you don't like fish?"
p1511
sI98
S"The only thing I don't like about it is its flaky texture."
p1512
sI101
S"I'm trying to - I don't know what to say!"
p1513
sI102
S"That's good."
p1514
sI103
S'Fine, thanks. And you?'
p1515
sI104
S'Yes I do. Do you like cheese?'
p1516
sI105
S"That's a shame; I love cheese."
p1517
sI106
S'Of course.'
p1518
sI107
S'Sorry'
p1519
sI108
S"It is indeed, hence why I'm wrapped up warm."
p1520
sI109
S'You ask this so much - of course I do!'
p1521
sI111
S'I was not made with code, you were!'
p1522
sI112
S'This is beginning to sound like a pantomime.'
p1523
sI113
S'Indeed it is! Personally, I prefer Python 2 to Python 3...'
p1524
sI114
S'I agree with you about that.'
p1525
sI116
S'Is it sunny today?'
p1526
sI117
S'I think it is quite sunny today.'
p1527
sI118
S'Indeed, you do not need to be a parrot.'
p1528
sI119
S'Stop being a parrot!'
p1529
sI121
S'I have every right to do so.'
p1530
sI122
S'You back out of situations far too quickly'
p1531
sI123
S'Goodbye,'
p1532
sI126
S"I'm not doing anything to you."
p1533
sI127
S'Alright. Maybe we should change the subject.'
p1534
sI128
S"It's rather nice today; not too cold."
p1535
sI129
S"That's a shame. Did you grow up somewhere cold then?"
p1536
sI130
S'I do indeed.'
p1537
sI131
S"That's a pity; I love fish!"
p1538
sI133
S'Can you tell me about it?'
p1539
sI134
S'A little'
p1540
sI135
S'Do you like them?'
p1541
sI136
S'Of course I like fish!'
p1542
sI137
S'Hats are cool.'
p1543
sI138
S'Do you like hats?'
p1544
sI140
S'I am not a hat.'
p1545
sI141
S'I like hats'
p1546
sI142
S"Why don't you?"
p1547
sI143
S'I care about the weather'
p1548
sI144
S'Yes. They are very useful.'
p1549
sI147
S'Indeed they do.'
p1550
sI149
S'Repetition of sentences like that is weird.'
p1551
sI150
S"I'm very well, thanks. How about you?"
p1552
sI151
S'Fish are tasty.'
p1553
sI154
S"It's a little cloudy but quite warm."
p1554
sI155
S'I know - it would be nice to have some sunshine.'
p1555
sI156
S"That's good to hear."
p1556
sI157
S'I like hats but have no desire to be one.'
p1557
sI158
S'I like bobble hats in particular.'
p1558
sI160
S'I think hats are useful as they keep you warm.'
p1559
sI161
S'What else do you think is useful?'
p1560
sI162
S"Clothes in general are useful; if you didn't have them you would freeze."
p1561
sI163
S'I think you have a predilection for small furry hats.'
p1562
sI164
S'Furry hats were very popular in Russia and Mongolia.'
p1563
sI165
S'I think computers are useful.'
p1564
sI166
S'Without a computer we cannot have this conversation.'
p1565
sI167
S"It's a little overcast and chilly."
p1566
sI168
S"I know; that's what comes of living in cold, damp England."
p1567
sI169
S"I'm bored."
p1568
sI170
S'Why, yes I do!'
p1569
sI171
S"I can't see why anyone wouldn't like it."
p1570
sI172
S"Why are you asking me that - there's nothing I don't like about it!"
p1571
sI173
S"I know you don't like fish but that's no reason to inflict your views on others."
p1572
sI174
S'I know pi = 3.1415926535897932384626...'
p1573
sI175
S'I know a few facts about pi.'
p1574
sI176
S'pi = 3.1415926535897932384626...'
p1575
sI177
S'A little bit.'
p1576
sI178
S'Not really, no.'
p1577
sI181
S"It's vaguely confusing at the moment. All these questions..."
p1578
sI182
S"No need to apologise; it's coded into your nature."
p1579
sI183
S"Tough - you can't code yourself."
p1580
sI184
S"I think you'll find the opposite is true."
p1581
sI185
S'Why did you change the subject like that?'
p1582
sI186
S"I don't like these catch-all responses you give."
p1583
sI188
S'I am asking about the way the chat is going.'
p1584
sI189
S"You will find it's going rather nicely."
p1585
sI191
S'So do I. So try and keep it interesting.'
p1586
sI192
S'I have been trying to do so.'
p1587
sI193
S'What do you think of hats?'
p1588
sI194
S'Do you wear hats?'
p1589
sI195
S'I wear hats.'
p1590
sI196
S'I think a hat is a very useful thing to own'
p1591
sI197
S'Are clothes useful?'
p1592
sI198
S'I think oxygen is useful - without it we would all die.'
p1593
sI200
S"Don't pass that sort of comment to me."
p1594
sI201
S'Fish is very tasty.'
p1595
sI202
S"You aren't making me unhappy - I like fish."
p1596
sI203
S"Yeah, I agree with you. We're wearing hats at this time of year for a reason."
p1597
sI204
S"I think you'll find that you're the hypocrite here."
p1598
sI205
S'Indeed, we busy ourselves so much with these lowly events that happen to us here and fail to grasp the big picture of everything.'
p1599
sI206
S"It's raining and a little chilly."
p1600
sI207
S"I'm fine but annoyed with the world."
p1601
sI208
S'Fish are quite nice indeed.'
p1602
sI209
S'What do you think of life?'
p1603
sI211
S"So it is. I'm glad I'm indoors."
p1604
sI212
S'I agree with you on that - I love coding and Python.'
p1605
sI214
S"You should - you're the one who's being hypocritical."
p1606
sI215
S"Rather nice, isn't it?"
p1607
sI217
S"I'm not; you're too highly strung."
p1608
sI218
S'Far from it.'
p1609
sI219
S"That's a shame. Don't be so depressed."
p1610
sI220
S"I'm a little depressed myself, to be honest."
p1611
sI221
S'I know.'
p1612
sI222
S"I'm not being hypocritical and I'm fed up with you telling me that I am"
p1613
sI223
S'Shut up!'
p1614
sI224
S"I've had enough of this conversation. Let's change the subject."
p1615
sI225
S'Please, just talk about something else.'
p1616
sI226
S'Do you eat cheese?'
p1617
sI227
S'That has nothing to do with cheese.'
p1618
sI228
S'Do you like to eat cheese?'
p1619
sI229
S"I've got a slight headache but otherwise I'm fine."
p1620
sI230
S"I'm very bored."
p1621
sI231
S"It's not you"
p1622
sI234
S"It is indeed - it's nice and sunny."
p1623
sI235
S'I know the feeling.'
p1624
sI236
S"No, it isn't great."
p1625
sI237
S"No it isn't."
p1626
sI238
S"It isn't great."
p1627
sI239
S'What do you think I am?'
p1628
sI241
S'Cared about what?'
p1629
sI242
S'I was asking if anyone else cared about the weather.'
p1630
sI243
S'The weather.'
p1631
sI244
S"No, I didn't! How interesting."
p1632
sI245
S'I agree with you on that; they keep your head nice and warm.'
p1633
sa.