(lp1
(lp2
(lp3
(lp4
S'same'
p5
aS'for'
p6
aS'me'
p7
aaI6
aI0
aa(lp8
(lp9
S'im'
p10
aS'fine'
p11
aS'thanks'
p12
aS'for'
p13
aS'asking'
p14
aaI9
aF0
aa(lp15
(lp16
S'thats'
p17
aS'a'
aS'pity'
p18
aaI8
aF0.64761904761904765
aa(lp19
(lp20
S'im'
p21
aS'feeling'
p22
aS'fine'
p23
aaI7
aF0.74285714285714288
aa(lp24
(lp25
S'im'
p26
aS'very'
p27
aS'well'
p28
aS'thanks'
p29
aaI2
aF1.2
aaaI9
a(dp30
I2
S"I'm very well, thanks."
p31
sI6
S'Same for me.'
p32
sI7
S"I'm feeling fine."
p33
sI8
S"That's a pity."
p34
sI9
S"I'm fine, thanks for asking."
p35
sa.