(lp1
(lp2
(lp3
(lp4
S'thank'
p5
aS'you'
p6
aaI27
aF0
aa(lp7
(lp8
S'a'
aS'little'
p9
aS'poorly'
p10
aaI28
aF0
aa(lp11
(lp12
S'i'
aS'wasnt'
p13
aS'going'
p14
aS'to'
p15
aaI29
aF0
aa(lp16
(lp17
S'hello'
p18
aS'how'
p19
aS'are'
p20
aS'you'
p21
aS'today'
p22
aaI10
aF0.32183908045977011
aa(lp23
(lp24
S'hi'
p25
aaI0
aF0.5
aa(lp26
(lp27
S'hello'
p28
aS'there'
p29
aaI24
aF0.65822784810126589
aaaI29
a(dp30
I0
S'Hi'
p31
sI10
S'Hello. How are you today?'
p32
sI24
S'Hello there.'
p33
sI27
S'Thank you.'
p34
sI28
S'A little poorly.'
p35
sI29
S"I wasn't going to."
p36
sa.