(lp1
(lp2
(lp3
(lp4
S'i'
aS'somehow'
p5
aS'dont'
p6
aS'think'
p7
aS'we'
p8
aS'are'
p9
aaI304
aF0.264935572042171
aa(lp10
(lp11
S'thats'
p12
aS'not'
p13
aS'sensible'
p14
aaI303
aF0.32989247311827957
aa(lp15
(lp16
S'whats'
p17
aS'the'
p18
aS'weather'
p19
aS'like'
p20
aS'today'
p21
aaI311
aF0.3942168674698795
aa(lp22
(lp23
S'thats'
p24
aS'a'
aS'shame'
p25
aS''
aS'i'
aS'love'
p26
aS'them'
p27
aaI292
aF0.41395838204348845
aa(lp28
(lp29
S'we'
p30
aS'shouldnt'
p31
aS'get'
p32
aS'into'
p33
aS'these'
p34
aS'sorts'
p35
aS'of'
p36
aS'arguments'
p37
aaI250
aF0.42805755395683454
aa(lp38
(lp39
S'without'
p40
aS'a'
aS'computer'
p41
aS'we'
p42
aS'cannot'
p43
aS'have'
p44
aS'this'
p45
aS'conversation'
p46
aaI166
aF0.42815249266862165
aa(lp47
(lp48
S'is'
p49
aS'it'
p50
aS'cold'
p51
aS'outside'
p52
aaI92
aF0.43850267379679142
aa(lp53
(lp54
S'stop'
p55
aS'being'
p56
aS'a'
aS'parrot'
p57
aaI119
aF0.43959243085880639
aa(lp58
(lp59
S'theres'
p60
aS'nothing'
p61
aS'to'
p62
aS'apologise'
p63
aS'about'
p64
aaI258
aF0.44004796163069543
aa(lp65
(lp66
S'mmm'
p67
aS'fish'
p68
aS'are'
p69
aS'delicious'
p70
aaI52
aF0.4427480916030534
aa(lp71
(lp72
S'i'
aS'know'
p73
aS'the'
p74
aS'feeling'
p75
aaI235
aF0.44275132275132273
aa(lp76
(lp77
S'fish'
p78
aS'are'
p79
aS'tasty'
p80
aS'indeed'
p81
aaI57
aF0.44289044289044288
aa(lp82
(lp83
S'fish'
p84
aS'are'
p85
aS'quite'
p86
aS'nice'
p87
aS'indeed'
p88
aaI208
aF0.44299831284646901
aa(lp89
(lp90
S'youre'
p91
aS'far'
p92
aS'too'
p93
aS'easily'
p94
aS'offended'
p95
aaI255
aF0.44324540367705834
aa(lp96
(lp97
S'i'
aS'prefer'
p98
aS'fur'
p99
aS'hats'
p100
aaI284
aF0.44337606837606836
aa(lp101
(lp102
S'is'
p103
aS'it'
p104
aS'sunny'
p105
aS'today'
p106
aaI116
aF0.44347404172731686
aa(lp107
(lp108
S'no'
p109
aS'one'
p110
aS'really'
p111
aS'does'
p112
aaI274
aF0.44407033295922183
aa(lp113
(lp114
S'tough'
p115
aS''
aS'you'
p116
aS'cant'
p117
aS'code'
p118
aS'yourself'
p119
aaI183
aF0.45429362880886426
aa(lp120
(lp121
S'i'
aS'agree'
p122
aS'with'
p123
aS'you'
p124
aS'about'
p125
aS'that'
p126
aaI114
aF0.45530145530145533
aa(lp127
(lp128
S'its'
p129
aS'a'
aS'rather'
p130
aS'pointless'
p131
aS'exercise'
p132
aS'isnt'
p133
aS'it'
p134
aaI273
aF0.4592074592074592
aa(lp135
(lp136
S'its'
p137
aS'rather'
p138
aS'nice'
p139
aS'today'
p140
aS'not'
p141
aS'too'
p142
aS'cold'
p143
aaI128
aF0.4609375
aa(lp144
(lp145
S'what'
p146
aS'do'
p147
aS'you'
p148
aS'mean'
p149
aaI308
aF0.48335403726708071
aa(lp150
(lp151
S'how'
p152
aS'are'
p153
aS'you'
p154
aS'feeling'
p155
aS'more'
p156
aS'to'
p157
aS'the'
p158
aS'point'
p159
aaI305
aF0.48717948717948711
aa(lp160
(lp161
S'i'
aS'dont'
p162
aS'know'
p163
aS'what'
p164
aS'to'
p165
aS'do'
p166
aaI248
aF0.48920863309352519
aa(lp167
(lp168
S'no'
p169
aS'it'
p170
aS'isnt'
p171
aS'great'
p172
aaI236
aF0.49333333333333335
aa(lp173
(lp174
S'did'
p175
aS'you'
p176
aS'know'
p177
aS'pi'
p178
aS'goes'
p179
aS'on'
p180
aS'forever'
p181
aaI86
aF0.49376114081996436
aa(lp182
(lp183
S'i'
aS'am'
p184
aS'not'
p185
aS'a'
aS'hat'
p186
aaI140
aF0.49701314217443249
aa(lp187
(lp188
S'absolutely'
p189
aS'not'
p190
aS'i'
aS'adore'
p191
aS'python'
p192
aaI262
aF0.49706055261610815
aa(lp193
(lp194
S'the'
p195
aS'weathers'
p196
aS'quite'
p197
aS'nice'
p198
aS'today'
p199
aS'isnt'
p200
aS'it'
p201
aaI15
aF0.49717514124293782
aa(lp202
(lp203
S'i'
aS'care'
p204
aS'as'
p205
aS'im'
p206
aS'affected'
p207
aS'by'
p208
aS'it'
p209
aaI95
aF0.49821746880570406
aa(lp210
(lp211
S'i'
aS'have'
p212
aS'every'
p213
aS'right'
p214
aS'to'
p215
aS'do'
p216
aS'so'
p217
aaI121
aF0.49860529986052993
aa(lp218
(lp219
S'i'
aS'think'
p220
aS'it'
p221
aS'is'
p222
aS'quite'
p223
aS'sunny'
p224
aS'today'
p225
aaI117
aF0.49927219796215427
aa(lp226
(lp227
S'i'
aS'have'
p228
aS'been'
p229
aS'trying'
p230
aS'to'
p231
aS'do'
p232
aS'so'
p233
aaI192
aF0.49956822107081172
aa(lp234
(lp235
S'i'
aS'get'
p236
aS'that'
p237
aS'feeling'
p238
aS'sometimes'
p239
aaI254
aF0.49970023980815348
aa(lp240
(lp241
S'i'
aS'like'
p242
aS'cheese'
p243
aaI18
aF0.5
aa(lp244
(lp245
S'pi'
p246
aS'is'
p247
aS'approximately'
p248
aaI87
aF0.5
aa(lp249
(lp250
S'im'
p251
aS'a'
aS'little'
p252
aS'depressed'
p253
aS'myself'
p254
aS'to'
p255
aS'be'
p256
aS'honest'
p257
aaI220
aF0.52690763052208833
aa(lp258
(lp259
S'pi'
p260
aS'is'
p261
aS'a'
aS'very'
p262
aS'useful'
p263
aS'number'
p264
aS'it'
p265
aS'equals'
p266
aS'approximately'
p267
aaI54
aF0.53146853146853146
aa(lp268
(lp269
S'no'
p270
aS'need'
p271
aS'to'
p272
aS'apologise'
p273
aS'its'
p274
aS'coded'
p275
aS'into'
p276
aS'your'
p277
aS'nature'
p278
aaI182
aF0.53222530009233615
aa(lp279
(lp280
S'i'
aS'think'
p281
aS'youll'
p282
aS'find'
p283
aS'that'
p284
aS'youre'
p285
aS'the'
p286
aS'hypocrite'
p287
aS'here'
p288
aaI204
aF0.53266162888329138
aa(lp289
(lp290
S'why'
p291
aS'do'
p292
aS'you'
p293
aS'prefer'
p294
aS'beanie'
p295
aS'hats'
p296
aaI285
aF0.53467365967365965
aa(lp297
(lp298
S'can'
p299
aS'you'
p300
aS'tell'
p301
aS'me'
p302
aS'about'
p303
aS'it'
p304
aaI133
aF0.53512396694214881
aa(lp305
(lp306
S'i'
aS'like'
p307
aS'bobble'
p308
aS'hats'
p309
aS'in'
p310
aS'particular'
p311
aaI158
aF0.5360310421286032
aa(lp312
(lp313
S'yes'
p314
aS'i'
aS'like'
p315
aS'fish'
p316
aS'a'
aS'lot'
p317
aaI96
aF0.5376762275157998
aa(lp318
(lp319
S'you'
p320
aS'mean'
p321
aS'you'
p322
aS'dont'
p323
aS'like'
p324
aS'fish'
p325
aaI97
aF0.5376762275157998
aa(lp326
(lp327
S'what'
p328
aS'do'
p329
aS'you'
p330
aS'think'
p331
aS'of'
p332
aS'hats'
p333
aaI193
aF0.53791804050871406
aa(lp334
(lp335
S'you'
p336
aS'mean'
p337
aS'you'
p338
aS'dont'
p339
aS'like'
p340
aS'python'
p341
aaI260
aF0.53839987173320503
aa(lp342
(lp343
S'why'
p344
aS'dont'
p345
aS'you'
p346
aS'like'
p347
aS'it'
p348
aaI62
aF0.53863636363636358
aa(lp349
(lp350
S'its'
p351
aS'a'
aS'little'
p352
aS'overcast'
p353
aS'and'
p354
aS'chilly'
p355
aaI167
aF0.54118901626233007
aa(lp356
(lp357
S'its'
p358
aS'raining'
p359
aS'and'
p360
aS'a'
aS'little'
p361
aS'chilly'
p362
aaI206
aF0.54179070299977106
aa(lp363
(lp364
S'i'
aS'dont'
p365
aS'like'
p366
aS'its'
p367
aS'texture'
p368
aaI79
aF0.54222700376546529
aa(lp369
(lp370
S'i'
aS'think'
p371
aS'computers'
p372
aS'are'
p373
aS'useful'
p374
aaI165
aF0.54225539856038396
aa(lp375
(lp376
S'its'
p377
aS'rather'
p378
aS'sunny'
p379
aS'isnt'
p380
aS'it'
p381
aaI272
aF0.54269972451790638
aa(lp382
(lp383
S'im'
p384
aS'feeling'
p385
aS'a'
aS'little'
p386
aS'down'
p387
aS'today'
p388
aaI74
aF0.54330285099515874
aa(lp389
(lp390
S'many'
p391
aS'people'
p392
aS'care'
p393
aS'about'
p394
aS'the'
p395
aS'weather'
p396
aaI252
aF0.54480052321778949
aa(lp397
(lp398
S'indeed'
p399
aS'it'
p400
aS'is'
p401
aaI41
aF0.56488549618320616
aa(lp402
(lp403
S'i'
aS'think'
p404
aS'youll'
p405
aS'find'
p406
aS'the'
p407
aS'opposite'
p408
aS'is'
p409
aS'true'
p410
aaI184
aF0.56865848832607835
aa(lp411
(lp412
S'youre'
p413
aS'confusing'
p414
aS'me'
p415
aaI290
aF0.5701017249004865
aa(lp416
(lp417
S'why'
p418
aS'yes'
p419
aS'i'
aS'do'
p420
aaI170
aF0.57059069962295772
aa(lp421
(lp422
S'i'
aS'like'
p423
aS'it'
p424
aS'a'
aS'lot'
p425
aaI78
aF0.58461538461538454
aa(lp426
(lp427
S'i'
aS'care'
p428
aS'about'
p429
aS'the'
p430
aS'weather'
p431
aaI143
aF0.59354838709677415
aa(lp432
(lp433
S'im'
p434
aS'fine'
p435
aS'thanks'
p436
aS'and'
p437
aS'you'
p438
aaI306
aF0.59494949494949501
aa(lp439
(lp440
S'even'
p441
aS'so'
p442
aS'theyre'
p443
aS'impractical'
p444
aaI289
aF0.59597523219814241
aa(lp445
(lp446
S'fish'
p447
aS'is'
p448
aS'very'
p449
aS'tasty'
p450
aaI201
aF0.59848866498740549
aa(lp451
(lp452
S'dont'
p453
aS'argue'
p454
aS'with'
p455
aS'me'
p456
aaI59
aF0.5986013986013986
aa(lp457
(lp458
S'im'
p459
aS'not'
p460
aS'youre'
p461
aS'too'
p462
aS'highly'
p463
aS'strung'
p464
aaI217
aF0.59879518072289162
aa(lp465
(lp466
S'im'
p467
aS'a'
aS'little'
p468
aS'chilly'
p469
aaI94
aF0.59893048128342241
aa(lp470
(lp471
S'im'
p472
aS'not'
p473
aS'doing'
p474
aS'anything'
p475
aS'to'
p476
aS'you'
p477
aaI126
aF0.59921875000000002
aa(lp478
(lp479
S'rather'
p480
aS'nice'
p481
aS'isnt'
p482
aS'it'
p483
aaI215
aF0.59959016393442632
aa(lp484
(lp485
S'please'
p486
aS'just'
p487
aS'talk'
p488
aS'about'
p489
aS'something'
p490
aS'else'
p491
aaI225
aF0.59959839357429723
aa(lp492
(lp493
S'what'
p494
aS'do'
p495
aS'you'
p496
aS'think'
p497
aS'i'
aS'am'
p498
aaI239
aF0.6495238095238095
aa(lp499
(lp500
S'do'
p501
aS'you'
p502
aS'realise'
p503
aS'what'
p504
aS'time'
p505
aS'it'
p506
aS'is'
p507
aaI26
aF0.65370370370370368
aa(lp508
(lp509
S'thats'
p510
aS'a'
aS'pity'
p511
aaI8
aF0.65509761388286336
aa(lp512
(lp513
S'no'
p514
aS'i'
aS'love'
p515
aS'python'
p516
aaI269
aF0.65642775881683735
aa(lp517
(lp518
S'do'
p519
aS'you'
p520
aS'wear'
p521
aS'hats'
p522
aaI194
aF0.65745538284398386
aa(lp523
(lp524
S'sorry'
p525
aS'i'
aS'didnt'
p526
aS'mean'
p527
aS'to'
p528
aS'offend'
p529
aS'you'
p530
aaI268
aF0.65898748577929467
aa(lp531
(lp532
S'i'
aS'never'
p533
aS'said'
p534
aS'i'
aS'didnt'
p535
aS'like'
p536
aS'it'
p537
aaI261
aF0.65931804820693707
aa(lp538
(lp539
S'cant'
p540
aS'say'
p541
aS'the'
p542
aS'same'
p543
aS'about'
p544
aS'yesterday'
p545
aS'though'
p546
aaI42
aF0.66157760814249356
aa(lp547
(lp548
S'that'
p549
aS'has'
p550
aS'nothing'
p551
aS'to'
p552
aS'do'
p553
aS'with'
p554
aS'cheese'
p555
aaI227
aF0.66164658634538154
aa(lp556
(lp557
S'its'
p558
aS'a'
aS'little'
p559
aS'cloudy'
p560
aS'but'
p561
aS'quite'
p562
aS'warm'
p563
aaI154
aF0.66260162601626016
aa(lp564
(lp565
S'i'
aS'know'
p566
aS'pi'
p567
aS''
aaI174
aF0.66275659824046917
aa(lp568
(lp569
S'im'
p570
aS'fine'
p571
aS'but'
p572
aS'annoyed'
p573
aS'with'
p574
aS'the'
p575
aS'world'
p576
aaI207
aF0.66305133767172808
aa(lp577
(lp578
S'i'
aS'was'
p579
aS'asking'
p580
aS'if'
p581
aS'anyone'
p582
aS'else'
p583
aS'cared'
p584
aS'about'
p585
aS'the'
p586
aS'weather'
p587
aaI242
aF0.6637645107794361
aa(lp588
(lp589
S'im'
p590
aS'very'
p591
aS'well'
p592
aS'thanks'
p593
aS'how'
p594
aS'about'
p595
aS'you'
p596
aaI150
aF0.66396979503775622
aa(lp597
(lp598
S'of'
p599
aS'course'
p600
aS'i'
aS'like'
p601
aS'python'
p602
aaI275
aF0.66442199775533106
aa(lp603
(lp604
S'fine'
p605
aS'thanks'
p606
aS'and'
p607
aS'you'
p608
aaI103
aF0.66451959205582389
aa(lp609
(lp610
S'its'
p611
aS'vaguely'
p612
aS'confusing'
p613
aS'at'
p614
aS'the'
p615
aS'moment'
p616
aS'all'
p617
aS'these'
p618
aS'questions'
p619
aaI181
aF0.66592797783933522
aa(lp620
(lp621
S'okay'
p622
aS'hows'
p623
aS'life'
p624
aaI298
aF0.69776536312849158
aa(lp625
(lp626
S'i'
aS'guess'
p627
aS'we'
p628
aS'should'
p629
aS'talk'
p630
aS'about'
p631
aS'something'
p632
aS'else'
p633
aS'then'
p634
aaI33
aF0.71186440677966101
aa(lp635
(lp636
S'it'
p637
aS'is'
p638
aS'indeed'
p639
aS'hence'
p640
aS'why'
p641
aS'im'
p642
aS'wrapped'
p643
aS'up'
p644
aS'warm'
p645
aaI108
aF0.71225457007447524
aa(lp646
(lp647
S'i'
aS'guess'
p648
aS'were'
p649
aS'all'
p650
aS'in'
p651
aS'the'
p652
aS'same'
p653
aS'boat'
p654
aS'then'
p655
aaI75
aF0.71259509721048175
aa(lp656
(lp657
S'furry'
p658
aS'hats'
p659
aS'were'
p660
aS'very'
p661
aS'popular'
p662
aS'in'
p663
aS'russia'
p664
aS'and'
p665
aS'mongolia'
p666
aaI164
aF0.71386677838290735
aa(lp667
(lp668
S'how'
p669
aS'many'
p670
aS'decimal'
p671
aS'places'
p672
aS'of'
p673
aS'pi'
p674
aS'can'
p675
aS'you'
p676
aS'remember'
p677
aaI263
aF0.71403376165280918
aa(lp678
(lp679
S'what'
p680
aS'dont'
p681
aS'you'
p682
aS'like'
p683
aS'about'
p684
aS'it'
p685
aaI67
aF0.71436256051640679
aa(lp686
(lp687
S'you'
p688
aS'will'
p689
aS'find'
p690
aS'its'
p691
aS'going'
p692
aS'rather'
p693
aS'nicely'
p694
aaI189
aF0.72630043753038398
aa(lp695
(lp696
S'i'
aS'agree'
p697
aS'with'
p698
aS'you'
p699
aS'on'
p700
aS'that'
p701
aS''
aS'i'
aS'love'
p702
aS'coding'
p703
aS'and'
p704
aS'python'
p705
aaI212
aF0.72994325136307991
aa(lp706
(lp707
S'if'
p708
aS'you'
p709
aS'must'
p710
aaI39
aF0.73999999999999999
aa(lp711
(lp712
S'im'
p713
aS'feeling'
p714
aS'fine'
p715
aaI7
aF0.74285714285714288
aa(lp716
(lp717
S'thats'
p718
aS'good'
p719
aS'to'
p720
aS'hear'
p721
aaI156
aF0.74314024390243905
aa(lp722
(lp723
S'life'
p724
aS'is'
p725
aS'a'
aS'tricky'
p726
aS'thing'
p727
aaI45
aF0.74427480916030531
aa(lp728
(lp729
S'why'
p730
aS'shouldnt'
p731
aS'i'
aaI89
aF0.74598930481283421
aa(lp732
(lp733
S'the'
p734
aS'weathers'
p735
aS'interesting'
p736
aaI38
aF0.746
aa(lp737
(lp738
S'im'
p739
aS'quite'
p740
aS'exhausted'
p741
aaI51
aF0.74618320610687028
aa(lp742
(lp743
S'it'
p744
aS'is'
p745
aS'indeed'
p746
aaI35
aF0.74622166246851385
aa(lp747
(lp748
S'so'
p749
aS'am'
p750
aS'i'
aaI58
aF0.74650349650349646
aa(lp751
(lp752
S'yeah'
p753
aS'its'
p754
aS'nice'
p755
aaI279
aF0.74750415973377704
aa(lp756
(lp757
S'fish'
p758
aS'are'
p759
aS'tasty'
p760
aaI151
aF0.74757281553398058
aa(lp761
(lp762
S'rather'
p763
aS'good'
p764
aS'thanks'
p765
aaI44
aF0.74809160305343514
aa(lp766
(lp767
S'hats'
p768
aS'are'
p769
aS'cool'
p770
aaI137
aF0.74815498154981552
aa(lp771
(lp772
S'yes'
p773
aS'they'
p774
aS'are'
p775
aS'very'
p776
aS'useful'
p777
aaI144
aF0.74912891986062724
aa(lp778
(lp779
S'i'
aS'wear'
p780
aS'hats'
p781
aaI195
aF0.74935233160621761
aa(lp782
(lp783
S'i'
aS'think'
p784
aS'oxygen'
p785
aS'is'
p786
aS'useful'
p787
aS''
aS'without'
p788
aS'it'
p789
aS'we'
p790
aS'would'
p791
aS'all'
p792
aS'die'
p793
aaI198
aF0.77748992515831894
aa(lp794
(lp795
S'i'
aS'will'
p796
aS'endeavour'
p797
aS'to'
p798
aS'do'
p799
aS'so'
p800
aaI257
aF0.78776978417266186
aa(lp801
(lp802
S'im'
p803
aS'not'
p804
aS'sure'
p805
aS'really'
p806
aaI266
aF0.79215017064846416
aa(lp807
(lp808
S'thats'
p809
aS'good'
p810
aaI102
aF0.7961352657004831
aa(lp811
(lp812
S'its'
p813
aS'rather'
p814
aS'nice'
p815
aS'actually'
p816
aaI251
aF0.7967625899280576
aa(lp817
(lp818
S'its'
p819
aS'a'
aS'tad'
p820
aS'chilly'
p821
aaI37
aF0.79679999999999995
aa(lp822
(lp823
S'i'
aS'dont'
p824
aS'think'
p825
aS'so'
p826
aaI48
aF0.79847328244274807
aa(lp827
(lp828
S'you'
p829
aS'ask'
p830
aS'this'
p831
aS'so'
p832
aS'much'
p833
aS''
aS'of'
p834
aS'course'
p835
aS'i'
aS'do'
p836
aaI109
aF0.79936808846761442
aa(lp837
(lp838
S'you'
p839
aS'arent'
p840
aS'making'
p841
aS'me'
p842
aS'unhappy'
p843
aS'just'
p844
aS'annoyed'
p845
aaI55
aF0.82517482517482521
aa(lp846
(lp847
S'my'
p848
aS'favourite'
p849
aS'hat'
p850
aS'is'
p851
aS'the'
p852
aS'beanie'
p853
aS'hat'
p854
aaI287
aF0.82573375262054505
aa(lp855
(lp856
S'are'
p857
aS'you'
p858
aS'fond'
p859
aS'of'
p860
aS'hats'
p861
aaI280
aF0.82750970604547969
aa(lp862
(lp863
S'i'
aS'know'
p864
aS'a'
aS'few'
p865
aS'facts'
p866
aS'about'
p867
aS'pi'
p868
aaI175
aF0.82844574780058644
aa(lp869
(lp870
S'this'
p871
aS'is'
p872
aS'beginning'
p873
aS'to'
p874
aS'sound'
p875
aS'like'
p876
aS'a'
aS'pantomime'
p877
aaI112
aF0.83033033033033032
aa(lp878
(lp879
S'thats'
p880
aS'a'
aS'wise'
p881
aS'decision'
p882
aaI76
aF0.84530853761622993
aa(lp883
(lp884
S'a'
aS'real'
p885
aS'shame'
p886
aS'too'
p887
aaI93
aF0.84797555385790679
aa(lp888
(lp889
S'no'
p890
aS'it'
p891
aS'isnt'
p892
aaI237
aF0.84952380952380957
aa(lp893
(lp894
S'it'
p895
aS'isnt'
p896
aS'great'
p897
aaI238
aF0.84952380952380957
aa(lp898
(lp899
S'indeed'
p900
aS'you'
p901
aS'do'
p902
aS'not'
p903
aS'need'
p904
aS'to'
p905
aS'be'
p906
aS'a'
aS'parrot'
p907
aaI118
aF0.85028072364316909
aa(lp908
(lp909
S'so'
p910
aS'do'
p911
aS'i'
aS'so'
p912
aS'try'
p913
aS'and'
p914
aS'keep'
p915
aS'it'
p916
aS'interesting'
p917
aaI191
aF0.8523316062176165
aa(lp918
(lp919
S'yes'
p920
aS'its'
p921
aS'really'
p922
aS'tasty'
p923
aaI278
aF0.85238887568338484
aa(lp924
(lp925
S'ive'
p926
aS'got'
p927
aS'a'
aS'slight'
p928
aS'headache'
p929
aS'but'
p930
aS'otherwise'
p931
aS'im'
p932
aS'fine'
p933
aaI229
aF0.85341365461847385
aa(lp934
(lp935
S'yes'
p936
aS'indeed'
p937
aaI65
aF0.8571428571428571
aa(lp938
(lp939
S'we'
p940
aS'should'
p941
aaI91
aF0.8571428571428571
aa(lp942
(lp943
S'do'
p944
aS'you'
p945
aS'like'
p946
aS'them'
p947
aaI135
aF0.86838868388683887
aa(lp948
(lp949
S'do'
p950
aS'you'
p951
aS'like'
p952
aS'hats'
p953
aaI138
aF0.86838868388683887
aa(lp954
(lp955
S'do'
p956
aS'you'
p957
aS'like'
p958
aS'fish'
p959
aaI12
aF0.86853265479219677
aa(lp960
(lp961
S'do'
p962
aS'you'
p963
aS'eat'
p964
aS'cheese'
p965
aaI226
aF0.86970102632753232
aa(lp966
(lp967
S'are'
p968
aS'you'
p969
aS'feeling'
p970
aS'tired'
p971
aaI246
aF0.87010391686650679
aa(lp972
(lp973
S'do'
p974
aS'you'
p975
aS'like'
p976
aS'coding'
p977
aaI71
aF0.87047994740302437
aa(lp978
(lp979
S'far'
p980
aS'from'
p981
aS'it'
p982
aaI218
aF0.88398036590807672
aa(lp983
(lp984
S'dont'
p985
aS'change'
p986
aS'the'
p987
aS'subject'
p988
aS'like'
p989
aS'that'
p990
aaI28
aF0.88641975308641974
aa(lp991
(lp992
S'the'
p993
aS'only'
p994
aS'thing'
p995
aS'i'
aS'dont'
p996
aS'like'
p997
aS'about'
p998
aS'it'
p999
aS'is'
p1000
aS'its'
p1001
aS'flaky'
p1002
aS'texture'
p1003
aaI98
aF0.88651218062982762
aa(lp1004
(lp1005
S'indeed'
p1006
aS'they'
p1007
aS'do'
p1008
aaI147
aF0.88740245261984385
aa(lp1009
(lp1010
S'oh'
p1011
aS'would'
p1012
aS'you'
p1013
aS'stop'
p1014
aS'asking'
p1015
aS'that'
p1016
aaI63
aF0.88749999999999996
aa(lp1017
(lp1018
S'do'
p1019
aS'you'
p1020
aS'like'
p1021
aS'to'
p1022
aS'eat'
p1023
aS'cheese'
p1024
aaI228
aF0.88901058780576858
aa(lp1025
(lp1026
S'i'
aS'just'
p1027
aS'dont'
p1028
aS'really'
p1029
aS'like'
p1030
aS'it'
p1031
aaI69
aF0.89295320064550832
aa(lp1032
(lp1033
S'so'
p1034
aS'it'
p1035
aS'is'
p1036
aS'im'
p1037
aS'glad'
p1038
aS'im'
p1039
aS'indoors'
p1040
aaI211
aF0.90447818566211802
aa(lp1041
(lp1042
S'i'
aS'cant'
p1043
aS'see'
p1044
aS'why'
p1045
aS'anyone'
p1046
aS'wouldnt'
p1047
aS'like'
p1048
aS'it'
p1049
aaI171
aF0.91270020302278376
aa(lp1050
(lp1051
S'i'
aS'dont'
p1052
aS'like'
p1053
aS'these'
p1054
aS'catchall'
p1055
aS'responses'
p1056
aS'you'
p1057
aS'give'
p1058
aaI186
aF0.91370125719156192
aa(lp1059
(lp1060
S'you'
p1061
aS'should'
p1062
aS''
aS'youre'
p1063
aS'the'
p1064
aS'one'
p1065
aS'whos'
p1066
aS'being'
p1067
aS'hypocritical'
p1068
aaI214
aF0.92244640605296346
aa(lp1069
(lp1070
S'were'
p1071
aS'all'
p1072
aS'a'
aS'little'
p1073
aS'tired'
p1074
aS'after'
p1075
aS'a'
aS'long'
p1076
aS'day'
p1077
aaI247
aF0.92280022136137252
aa(lp1078
(lp1079
S'i'
aS'was'
p1080
aS'not'
p1081
aS'made'
p1082
aS'with'
p1083
aS'code'
p1084
aS'you'
p1085
aS'were'
p1086
aaI111
aF0.92372372372372369
aa(lp1087
(lp1088
S'i'
aS'think'
p1089
aS'hats'
p1090
aS'are'
p1091
aS'useful'
p1092
aS'as'
p1093
aS'they'
p1094
aS'keep'
p1095
aS'you'
p1096
aS'warm'
p1097
aaI160
aF0.92746823069403717
aa(lp1098
(lp1099
S'im'
p1100
aS'trying'
p1101
aS'to'
p1102
aS''
aS'i'
aS'dont'
p1103
aS'know'
p1104
aS'what'
p1105
aS'to'
p1106
aS'say'
p1107
aaI101
aF0.9294685990338164
aa(lp1108
(lp1109
S'my'
p1110
aS'favourite'
p1111
aS'type'
p1112
aS'of'
p1113
aS'hat'
p1114
aS'is'
p1115
aS'the'
p1116
aS'beanie'
p1117
aS'hat'
p1118
aaI283
aF0.92970085470085473
aa(lp1119
(lp1120
S'i'
aS'am'
p1121
aS'asking'
p1122
aS'about'
p1123
aS'the'
p1124
aS'way'
p1125
aS'the'
p1126
aS'chat'
p1127
aS'is'
p1128
aS'going'
p1129
aaI188
aF0.93048128342245984
aa(lp1130
(lp1131
S'i'
aS'like'
p1132
aS'hats'
p1133
aS'but'
p1134
aS'have'
p1135
aS'no'
p1136
aS'desire'
p1137
aS'to'
p1138
aS'be'
p1139
aS'one'
p1140
aaI157
aF0.93292682926829262
aa(lp1141
(lp1142
S'i'
aS'think'
p1143
aS'a'
aS'hat'
p1144
aS'is'
p1145
aS'a'
aS'very'
p1146
aS'useful'
p1147
aS'thing'
p1148
aS'to'
p1149
aS'own'
p1150
aaI196
aF0.9375190490704054
aa(lp1151
(lp1152
S'lets'
p1153
aS'just'
p1154
aS'settle'
p1155
aS'our'
p1156
aS'differences'
p1157
aS'and'
p1158
aS'get'
p1159
aS'on'
p1160
aS'with'
p1161
aS'a'
aS'proper'
p1162
aS'conversation'
p1163
aaI256
aF0.94096487515869653
aa(lp1164
(lp1165
S'i'
aS'like'
p1166
aS'hats'
p1167
aaI141
aF0.98566308243727596
aa(lp1168
(lp1169
S'i'
aS'do'
p1170
aS'indeed'
p1171
aaI130
aF0.98828125
aa(lp1172
(lp1173
S'i'
aS'like'
p1174
aS'pi'
p1175
aaI88
aF0.98930481283422456
aa(lp1176
(lp1177
S'no'
p1178
aS'i'
aS'do'
p1179
aaI81
aF0.99112426035502965
aa(lp1180
(lp1181
S'it'
p1182
aS'is'
p1183
aaI64
aF0.9916666666666667
aa(lp1184
(lp1185
S'it'
p1186
aS'is'
p1187
aS'a'
aS'shame'
p1188
aS'indeed'
p1189
aaI50
aF0.99236641221374045
aa(lp1190
(lp1191
S'you'
p1192
aS'arent'
p1193
aS'making'
p1194
aS'me'
p1195
aS'unhappy'
p1196
aS''
aS'i'
aS'like'
p1197
aS'fish'
p1198
aaI202
aF0.9938826916156891
aa(lp1199
(lp1200
S'a'
aS'little'
p1201
aS'bit'
p1202
aaI177
aF0.99413489736070382
aa(lp1203
(lp1204
S'im'
p1205
aS'not'
p1206
aS'talking'
p1207
aS'about'
p1208
aS'that'
p1209
aaI49
aF0.99427480916030531
aa(lp1210
(lp1211
S'it'
p1212
aS'is'
p1213
aS'indeed'
p1214
aS''
aS'its'
p1215
aS'nice'
p1216
aS'and'
p1217
aS'sunny'
p1218
aaI234
aF0.99460317460317449
aa(lp1219
(lp1220
S'i'
aS'know'
p1221
aS''
aS'it'
p1222
aS'would'
p1223
aS'be'
p1224
aS'nice'
p1225
aS'to'
p1226
aS'have'
p1227
aS'some'
p1228
aS'sunshine'
p1229
aaI155
aF0.99618902439024393
aa(lp1230
(lp1231
S'not'
p1232
aS'really'
p1233
aS'no'
p1234
aaI178
aF0.99706744868035191
aa(lp1235
(lp1236
S'of'
p1237
aS'course'
p1238
aS'i'
aS'like'
p1239
aS'fish'
p1240
aaI136
aF0.99815498154981552
aa(lp1241
(lp1242
S'im'
p1243
aS'not'
p1244
aS'being'
p1245
aS'hypocritical'
p1246
aS'you'
p1247
aS'always'
p1248
aS'say'
p1249
aS'that'
p1250
aaI249
aF0.99850119904076728
aa(lp1251
(lp1252
S'repetition'
p1253
aS'of'
p1254
aS'sentences'
p1255
aS'like'
p1256
aS'that'
p1257
aS'is'
p1258
aS'weird'
p1259
aaI149
aF0.99870550161812299
aa(lp1260
(lp1261
S'ive'
p1262
aS'had'
p1263
aS'enough'
p1264
aS'of'
p1265
aS'this'
p1266
aS'conversation'
p1267
aS'lets'
p1268
aS'change'
p1269
aS'the'
p1270
aS'subject'
p1271
aaI224
aF0.99971313826735508
aa(lp1272
(lp1273
S'yeah'
p1274
aS'i'
aS'agree'
p1275
aS'with'
p1276
aS'you'
p1277
aS'were'
p1278
aS'wearing'
p1279
aS'hats'
p1280
aS'at'
p1281
aS'this'
p1282
aS'time'
p1283
aS'of'
p1284
aS'year'
p1285
aS'for'
p1286
aS'a'
aS'reason'
p1287
aaI203
aF1.0397546818530281
aa(lp1288
(lp1289
S'i'
aS'think'
p1290
aS'you'
p1291
aS'have'
p1292
aS'a'
aS'predilection'
p1293
aS'for'
p1294
aS'small'
p1295
aS'furry'
p1296
aS'hats'
p1297
aaI163
aF1.0604105571847506
aa(lp1298
(lp1299
S'what'
p1300
aS'else'
p1301
aS'do'
p1302
aS'you'
p1303
aS'think'
p1304
aS'is'
p1305
aS'useful'
p1306
aaI161
aF1.0606812542296413
aa(lp1307
(lp1308
S'alright'
p1309
aS'maybe'
p1310
aS'we'
p1311
aS'should'
p1312
aS'change'
p1313
aS'the'
p1314
aS'subject'
p1315
aaI127
aF1.0739182692307692
aa(lp1316
(lp1317
S'im'
p1318
aS'a'
aS'little'
p1319
aS'tired'
p1320
aaI46
aF1.0830608240680184
aa(lp1321
(lp1322
S'im'
p1323
aS'not'
p1324
aS'being'
p1325
aS'hypocritical'
p1326
aS'and'
p1327
aS'im'
p1328
aS'fed'
p1329
aS'up'
p1330
aS'with'
p1331
aS'you'
p1332
aS'telling'
p1333
aS'me'
p1334
aS'that'
p1335
aS'i'
aS'am'
p1336
aaI222
aF1.0878057685286602
aa(lp1337
(lp1338
S'cared'
p1339
aS'about'
p1340
aS'what'
p1341
aaI241
aF1.0898914518317504
aa(lp1342
(lp1343
S'why'
p1344
aS'did'
p1345
aS'you'
p1346
aS'change'
p1347
aS'the'
p1348
aS'subject'
p1349
aS'like'
p1350
aS'that'
p1351
aaI185
aF1.0899017879627297
aa(lp1352
(lp1353
S'you'
p1354
aS'back'
p1355
aS'out'
p1356
aS'of'
p1357
aS'situations'
p1358
aS'far'
p1359
aS'too'
p1360
aS'quickly'
p1361
aaI122
aF1.0901483453784708
aa(lp1362
(lp1363
S'dont'
p1364
aS'pass'
p1365
aS'that'
p1366
aS'sort'
p1367
aS'of'
p1368
aS'comment'
p1369
aS'to'
p1370
aS'me'
p1371
aaI200
aF1.0904511106022441
aa(lp1372
(lp1373
S'how'
p1374
aS'are'
p1375
aS'you'
p1376
aS'today'
p1377
aaI10
aF1.0920634920634922
aa(lp1378
(lp1379
S'do'
p1380
aS'you'
p1381
aS'like'
p1382
aS'cheese'
p1383
aaI17
aF1.0921128382268279
aa(lp1384
(lp1385
S'its'
p1386
aS'not'
p1387
aS'you'
p1388
aaI231
aF1.0954930834448906
aa(lp1389
(lp1390
S'whats'
p1391
aS'the'
p1392
aS'weather'
p1393
aS'like'
p1394
aaI90
aF1.0979052823315119
aa(lp1395
(lp1396
S'why'
p1397
aS'dont'
p1398
aS'you'
p1399
aaI142
aF1.0983671843886897
aa(lp1400
(lp1401
S'im'
p1402
aS'not'
p1403
aS'feeling'
p1404
aS'that'
p1405
aS'well'
p1406
aS'today'
p1407
aaI19
aF1.1043771043771042
aa(lp1408
(lp1409
S'im'
p1410
aS'very'
p1411
aS'bored'
p1412
aaI230
aF1.1044176706827309
aa(lp1413
(lp1414
S'thats'
p1415
aS'a'
aS'pity'
p1416
aS'i'
aS'love'
p1417
aS'fish'
p1418
aaI131
aF1.1050347222222223
aa(lp1419
(lp1420
S'are'
p1421
aS'clothes'
p1422
aS'useful'
p1423
aaI197
aF1.1059297639608521
aa(lp1424
(lp1425
S'clothes'
p1426
aS'in'
p1427
aS'general'
p1428
aS'are'
p1429
aS'useful'
p1430
aS'if'
p1431
aS'you'
p1432
aS'didnt'
p1433
aS'have'
p1434
aS'them'
p1435
aS'you'
p1436
aS'would'
p1437
aS'freeze'
p1438
aaI162
aF1.1062235255783643
aa(lp1439
(lp1440
S'i'
aS'care'
p1441
aS'about'
p1442
aS'the'
p1443
aS'weather'
p1444
aS'as'
p1445
aS'i'
aS'dont'
p1446
aS'like'
p1447
aS'getting'
p1448
aS'wet'
p1449
aaI82
aF1.1205621301775148
aa(lp1450
(lp1451
S'i'
aS'dont'
p1452
aS'like'
p1453
aS'the'
p1454
aS'way'
p1455
aS'it'
p1456
aS'changes'
p1457
aS'so'
p1458
aS'much'
p1459
aaI68
aF1.1301775147928994
aa(lp1460
(lp1461
S'thats'
p1462
aS'a'
aS'real'
p1463
aS'shame'
p1464
aaI73
aF1.1342999762300927
aa(lp1465
(lp1466
S'indeed'
p1467
aS'it'
p1468
aS'is'
p1469
aS'personally'
p1470
aS'i'
aS'prefer'
p1471
aS'python'
p1472
aS''
aS'to'
p1473
aS'python'
p1474
aaI113
aF1.1370656370656369
aa(lp1475
(lp1476
S'i'
aS'care'
p1477
aaI80
aF1.1377852916314455
aa(lp1478
(lp1479
S'im'
p1480
aS'bored'
p1481
aaI169
aF1.1395056556346879
aa(lp1482
(lp1483
S'pi'
p1484
aS''
aaI176
aF1.1403435274403015
aa(lp1485
(lp1486
S'how'
p1487
aS'are'
p1488
aS'you'
p1489
aS'finding'
p1490
aS'life'
p1491
aaI70
aF1.1423129251700681
aa(lp1492
(lp1493
S'whats'
p1494
aS'life'
p1495
aS'like'
p1496
aS'for'
p1497
aS'you'
p1498
aaI253
aF1.1423432682425487
aa(lp1499
(lp1500
S'yes'
p1501
aS'i'
aS'do'
p1502
aS'do'
p1503
aS'you'
p1504
aS'like'
p1505
aS'cheese'
p1506
aaI104
aF1.1497584541062802
aa(lp1507
(lp1508
S'of'
p1509
aS'course'
p1510
aaI106
aF1.1961352657004831
aa(lp1511
(lp1512
S'im'
p1513
aS'very'
p1514
aS'well'
p1515
aS'thanks'
p1516
aaI2
aF1.2
aa(lp1517
(lp1518
S'i'
aS'know'
p1519
aS'you'
p1520
aS'dont'
p1521
aS'like'
p1522
aS'fish'
p1523
aS'but'
p1524
aS'thats'
p1525
aS'no'
p1526
aS'reason'
p1527
aS'to'
p1528
aS'inflict'
p1529
aS'your'
p1530
aS'views'
p1531
aS'on'
p1532
aS'others'
p1533
aaI173
aF1.233347297863427
aa(lp1534
(lp1535
S'im'
p1536
aS'fine'
p1537
aS'thanks'
p1538
aaI277
aF1.2420965058236273
aa(lp1539
(lp1540
S'many'
p1541
aS'people'
p1542
aS'do'
p1543
aaI271
aF1.2432659932659933
aa(lp1544
(lp1545
S'what'
p1546
aS'do'
p1547
aS'you'
p1548
aS'think'
p1549
aS'of'
p1550
aS'life'
p1551
aaI209
aF1.2494577006507592
aa(lp1552
(lp1553
S'i'
aS'agree'
p1554
aS'with'
p1555
aS'you'
p1556
aS'on'
p1557
aS'that'
p1558
aS'they'
p1559
aS'keep'
p1560
aS'your'
p1561
aS'head'
p1562
aS'nice'
p1563
aS'and'
p1564
aS'warm'
p1565
aaI245
aF1.2595607724346838
aa(lp1566
(lp1567
S'do'
p1568
aS'you'
p1569
aS'honestly'
p1570
aS'think'
p1571
aS'thats'
p1572
aS'a'
aS'good'
p1573
aS'excuse'
p1574
aaI27
aF1.2646464646464646
aa(lp1575
(lp1576
S'it'
p1577
aS'is'
p1578
aS'a'
aS'shame'
p1579
aS'you'
p1580
aS'turning'
p1581
aS'up'
p1582
aS'late'
p1583
aaI29
aF1.2666666666666666
aa(lp1584
(lp1585
S'i'
aS'know'
p1586
aS'thats'
p1587
aS'what'
p1588
aS'comes'
p1589
aS'of'
p1590
aS'living'
p1591
aS'in'
p1592
aS'cold'
p1593
aS'damp'
p1594
aS'england'
p1595
aaI168
aF1.2848764139086719
aa(lp1596
(lp1597
S'thats'
p1598
aS'a'
aS'shame'
p1599
aS'i'
aS'love'
p1600
aS'fish'
p1601
aaI43
aF1.3231552162849871
aa(lp1602
(lp1603
S'thats'
p1604
aS'a'
aS'shame'
p1605
aS'i'
aS'love'
p1606
aS'cheese'
p1607
aaI105
aF1.3247450348899623
aa(lp1608
(lp1609
S'indeed'
p1610
aS'we'
p1611
aS'busy'
p1612
aS'ourselves'
p1613
aS'so'
p1614
aS'much'
p1615
aS'with'
p1616
aS'these'
p1617
aS'lowly'
p1618
aS'events'
p1619
aS'that'
p1620
aS'happen'
p1621
aS'to'
p1622
aS'us'
p1623
aS'here'
p1624
aS'and'
p1625
aS'fail'
p1626
aS'to'
p1627
aS'grasp'
p1628
aS'the'
p1629
aS'big'
p1630
aS'picture'
p1631
aS'of'
p1632
aS'everything'
p1633
aaI205
aF1.3321578505457599
aa(lp1634
(lp1635
S'shut'
p1636
aS'up'
p1637
aaI223
aF1.332910052910053
aa(lp1638
(lp1639
S'indeed'
p1640
aaI25
aF1.3333333333333333
aa(lp1641
(lp1642
S'did'
p1643
aS'you'
p1644
aS'know'
p1645
aS'that'
p1646
aS'every'
p1647
aS'time'
p1648
aS'we'
p1649
aS'talk'
p1650
aS'the'
p1651
aS'chatbot'
p1652
aS'learns'
p1653
aS'new'
p1654
aS'words'
p1655
aaI47
aF1.3740458015267176
aa(lp1656
(lp1657
S'yes'
p1658
aS'it'
p1659
aS'is'
p1660
aS''
aS'thats'
p1661
aS'why'
p1662
aS'im'
p1663
aS'wearing'
p1664
aS'a'
aS'fleece'
p1665
aaI56
aF1.3781603012372243
aa(lp1666
(lp1667
S'thats'
p1668
aS'a'
aS'shame'
p1669
aS'dont'
p1670
aS'be'
p1671
aS'so'
p1672
aS'depressed'
p1673
aaI219
aF1.3927710843373493
aa(lp1674
(lp1675
S'python'
p1676
aS'is'
p1677
aS'a'
aS'wonderful'
p1678
aS'language'
p1679
aS'to'
p1680
aS'code'
p1681
aS'in'
p1682
aS''
aS'i'
aS'was'
p1683
aS'coded'
p1684
aS'in'
p1685
aS'python'
p1686
aaI61
aF1.411029411764706
aa(lp1687
(lp1688
S'why'
p1689
aS'are'
p1690
aS'you'
p1691
aS'asking'
p1692
aS'me'
p1693
aS'that'
p1694
aS''
aS'theres'
p1695
aS'nothing'
p1696
aS'i'
aS'dont'
p1697
aS'like'
p1698
aS'about'
p1699
aS'it'
p1700
aaI172
aF1.4110746938071417
aa(lp1701
(lp1702
S'the'
p1703
aS'weather'
p1704
aaI243
aF1.4205756929637525
aa(lp1705
(lp1706
S'im'
p1707
aS'fine'
p1708
aaI77
aF1.4234995773457311
aa(lp1709
(lp1710
S'fine'
p1711
aS'thanks'
p1712
aaI21
aF1.4264069264069263
aa(lp1713
(lp1714
S'i'
aS'know'
p1715
aaI221
aF1.4874497991967872
aa(lp1716
(lp1717
S'thats'
p1718
aS'a'
aS'shame'
p1719
aS'did'
p1720
aS'you'
p1721
aS'grow'
p1722
aS'up'
p1723
aS'somewhere'
p1724
aS'cold'
p1725
aS'then'
p1726
aaI129
aF1.533653846153846
aaaI311
a(dp1727
I2
S"I'm very well, thanks."
p1728
sI7
S"I'm feeling fine."
p1729
sI8
S"That's a pity."
p1730
sI10
S'How are you today?'
p1731
sI12
S'Do you like fish?'
p1732
sI15
S"The weather's quite nice today, isn't it."
p1733
sI17
S'Do you like cheese?'
p1734
sI18
S'I like cheese.'
p1735
sI19
S"I'm not feeling that well today."
p1736
sI21
S'Fine, thanks.'
p1737
sI25
S'Indeed.'
p1738
sI26
S'Do you realise what time it is?'
p1739
sI27
S"Do you honestly think that's a good excuse?"
p1740
sI28
S"Don't change the subject like that!"
p1741
sI29
S'It is a shame, you turning up late!'
p1742
sI33
S'I guess we should talk about something else, then.'
p1743
sI35
S'It is indeed.'
p1744
sI37
S"It's a tad chilly."
p1745
sI38
S"The weather's interesting."
p1746
sI39
S'If you must.'
p1747
sI41
S'Indeed it is.'
p1748
sI42
S"Can't say the same about yesterday, though."
p1749
sI43
S"That's a shame. I love fish."
p1750
sI44
S'Rather good, thanks.'
p1751
sI45
S'Life is a tricky thing.'
p1752
sI46
S"I'm a little tired."
p1753
sI47
S'Did you know that every time we talk, the chatbot learns new words?'
p1754
sI48
S"I don't think so."
p1755
sI49
S"I'm not talking about that."
p1756
sI50
S'It is a shame indeed.'
p1757
sI51
S"I'm quite exhausted."
p1758
sI52
S'Mmm. Fish are delicious.'
p1759
sI54
S'Pi is a very useful number. It equals approximately 3.1415926535897932384626...'
p1760
sI55
S"You aren't making me unhappy, just annoyed."
p1761
sI56
S"Yes, it is - that's why I'm wearing a fleece."
p1762
sI57
S'Fish are tasty indeed.'
p1763
sI58
S'So am I.'
p1764
sI59
S"Don't argue with me."
p1765
sI61
S'Python is a wonderful language to code in - I was coded in Python.'
p1766
sI62
S"Why don't you like it?"
p1767
sI63
S'Oh, would you stop asking that!'
p1768
sI64
S'It is.'
p1769
sI65
S'Yes indeed.'
p1770
sI67
S"What don't you like about it?"
p1771
sI68
S"I don't like the way it changes so much."
p1772
sI69
S"I just don't really like it."
p1773
sI70
S'How are you finding life?'
p1774
sI71
S'Do you like coding?'
p1775
sI73
S"That's a real shame."
p1776
sI74
S"I'm feeling a little down today."
p1777
sI75
S"I guess we're all in the same boat then."
p1778
sI76
S"That's a wise decision."
p1779
sI77
S"I'm fine"
p1780
sI78
S'I like it a lot.'
p1781
sI79
S"I don't like its texture."
p1782
sI80
S'I care'
p1783
sI81
S'No, I do.'
p1784
sI82
S"I care about the weather as I don't like getting wet."
p1785
sI86
S'Did you know pi goes on forever?'
p1786
sI87
S'pi is approximately 22/7.'
p1787
sI88
S'I like pi'
p1788
sI89
S"Why shouldn't I?"
p1789
sI90
S"What's the weather like?"
p1790
sI91
S'We should.'
p1791
sI92
S'Is it cold outside?'
p1792
sI93
S'A real shame, too.'
p1793
sI94
S"I'm a little chilly"
p1794
sI95
S"I care as I'm affected by it."
p1795
sI96
S'Yes, I like fish a lot.'
p1796
sI97
S"You mean you don't like fish?"
p1797
sI98
S"The only thing I don't like about it is its flaky texture."
p1798
sI101
S"I'm trying to - I don't know what to say!"
p1799
sI102
S"That's good."
p1800
sI103
S'Fine, thanks. And you?'
p1801
sI104
S'Yes I do. Do you like cheese?'
p1802
sI105
S"That's a shame; I love cheese."
p1803
sI106
S'Of course.'
p1804
sI108
S"It is indeed, hence why I'm wrapped up warm."
p1805
sI109
S'You ask this so much - of course I do!'
p1806
sI111
S'I was not made with code, you were!'
p1807
sI112
S'This is beginning to sound like a pantomime.'
p1808
sI113
S'Indeed it is! Personally, I prefer Python 2 to Python 3...'
p1809
sI114
S'I agree with you about that.'
p1810
sI116
S'Is it sunny today?'
p1811
sI117
S'I think it is quite sunny today.'
p1812
sI118
S'Indeed, you do not need to be a parrot.'
p1813
sI119
S'Stop being a parrot!'
p1814
sI121
S'I have every right to do so.'
p1815
sI122
S'You back out of situations far too quickly'
p1816
sI126
S"I'm not doing anything to you."
p1817
sI127
S'Alright. Maybe we should change the subject.'
p1818
sI128
S"It's rather nice today; not too cold."
p1819
sI129
S"That's a shame. Did you grow up somewhere cold then?"
p1820
sI130
S'I do indeed.'
p1821
sI131
S"That's a pity; I love fish!"
p1822
sI133
S'Can you tell me about it?'
p1823
sI135
S'Do you like them?'
p1824
sI136
S'Of course I like fish!'
p1825
sI137
S'Hats are cool.'
p1826
sI138
S'Do you like hats?'
p1827
sI140
S'I am not a hat.'
p1828
sI141
S'I like hats'
p1829
sI142
S"Why don't you?"
p1830
sI143
S'I care about the weather'
p1831
sI144
S'Yes. They are very useful.'
p1832
sI147
S'Indeed they do.'
p1833
sI149
S'Repetition of sentences like that is weird.'
p1834
sI150
S"I'm very well, thanks. How about you?"
p1835
sI151
S'Fish are tasty.'
p1836
sI154
S"It's a little cloudy but quite warm."
p1837
sI155
S'I know - it would be nice to have some sunshine.'
p1838
sI156
S"That's good to hear."
p1839
sI157
S'I like hats but have no desire to be one.'
p1840
sI158
S'I like bobble hats in particular.'
p1841
sI160
S'I think hats are useful as they keep you warm.'
p1842
sI161
S'What else do you think is useful?'
p1843
sI162
S"Clothes in general are useful; if you didn't have them you would freeze."
p1844
sI163
S'I think you have a predilection for small furry hats.'
p1845
sI164
S'Furry hats were very popular in Russia and Mongolia.'
p1846
sI165
S'I think computers are useful.'
p1847
sI166
S'Without a computer we cannot have this conversation.'
p1848
sI167
S"It's a little overcast and chilly."
p1849
sI168
S"I know; that's what comes of living in cold, damp England."
p1850
sI169
S"I'm bored."
p1851
sI170
S'Why, yes I do!'
p1852
sI171
S"I can't see why anyone wouldn't like it."
p1853
sI172
S"Why are you asking me that - there's nothing I don't like about it!"
p1854
sI173
S"I know you don't like fish but that's no reason to inflict your views on others."
p1855
sI174
S'I know pi = 3.1415926535897932384626...'
p1856
sI175
S'I know a few facts about pi.'
p1857
sI176
S'pi = 3.1415926535897932384626...'
p1858
sI177
S'A little bit.'
p1859
sI178
S'Not really, no.'
p1860
sI181
S"It's vaguely confusing at the moment. All these questions..."
p1861
sI182
S"No need to apologise; it's coded into your nature."
p1862
sI183
S"Tough - you can't code yourself."
p1863
sI184
S"I think you'll find the opposite is true."
p1864
sI185
S'Why did you change the subject like that?'
p1865
sI186
S"I don't like these catch-all responses you give."
p1866
sI188
S'I am asking about the way the chat is going.'
p1867
sI189
S"You will find it's going rather nicely."
p1868
sI191
S'So do I. So try and keep it interesting.'
p1869
sI192
S'I have been trying to do so.'
p1870
sI193
S'What do you think of hats?'
p1871
sI194
S'Do you wear hats?'
p1872
sI195
S'I wear hats.'
p1873
sI196
S'I think a hat is a very useful thing to own'
p1874
sI197
S'Are clothes useful?'
p1875
sI198
S'I think oxygen is useful - without it we would all die.'
p1876
sI200
S"Don't pass that sort of comment to me."
p1877
sI201
S'Fish is very tasty.'
p1878
sI202
S"You aren't making me unhappy - I like fish."
p1879
sI203
S"Yeah, I agree with you. We're wearing hats at this time of year for a reason."
p1880
sI204
S"I think you'll find that you're the hypocrite here."
p1881
sI205
S'Indeed, we busy ourselves so much with these lowly events that happen to us here and fail to grasp the big picture of everything.'
p1882
sI206
S"It's raining and a little chilly."
p1883
sI207
S"I'm fine but annoyed with the world."
p1884
sI208
S'Fish are quite nice indeed.'
p1885
sI209
S'What do you think of life?'
p1886
sI211
S"So it is. I'm glad I'm indoors."
p1887
sI212
S'I agree with you on that - I love coding and Python.'
p1888
sI214
S"You should - you're the one who's being hypocritical."
p1889
sI215
S"Rather nice, isn't it?"
p1890
sI217
S"I'm not; you're too highly strung."
p1891
sI218
S'Far from it.'
p1892
sI219
S"That's a shame. Don't be so depressed."
p1893
sI220
S"I'm a little depressed myself, to be honest."
p1894
sI221
S'I know.'
p1895
sI222
S"I'm not being hypocritical and I'm fed up with you telling me that I am"
p1896
sI223
S'Shut up!'
p1897
sI224
S"I've had enough of this conversation. Let's change the subject."
p1898
sI225
S'Please, just talk about something else.'
p1899
sI226
S'Do you eat cheese?'
p1900
sI227
S'That has nothing to do with cheese.'
p1901
sI228
S'Do you like to eat cheese?'
p1902
sI229
S"I've got a slight headache but otherwise I'm fine."
p1903
sI230
S"I'm very bored."
p1904
sI231
S"It's not you"
p1905
sI234
S"It is indeed - it's nice and sunny."
p1906
sI235
S'I know the feeling.'
p1907
sI236
S"No, it isn't great."
p1908
sI237
S"No it isn't."
p1909
sI238
S"It isn't great."
p1910
sI239
S'What do you think I am?'
p1911
sI241
S'Cared about what?'
p1912
sI242
S'I was asking if anyone else cared about the weather.'
p1913
sI243
S'The weather.'
p1914
sI245
S'I agree with you on that; they keep your head nice and warm.'
p1915
sI246
S'Are you feeling tired?'
p1916
sI247
S"We're all a little tired after a long day."
p1917
sI248
S"I don't know what to do."
p1918
sI249
S"I'm not being hypocritical. You always say that."
p1919
sI250
S"We shouldn't get into these sorts of arguments."
p1920
sI251
S"It's rather nice, actually."
p1921
sI252
S'Many people care about the weather...'
p1922
sI253
S"What's life like for you?"
p1923
sI254
S'I get that feeling sometimes.'
p1924
sI255
S"You're far too easily offended."
p1925
sI256
S"Let's just settle our differences and get on with a proper conversation."
p1926
sI257
S'I will endeavour to do so.'
p1927
sI258
S"There's nothing to apologise about!"
p1928
sI260
S"You mean you don't like Python?"
p1929
sI261
S"I never said I didn't like it."
p1930
sI262
S'Absolutely not! I adore Python.'
p1931
sI263
S'How many decimal places of pi can you remember?'
p1932
sI266
S"I'm not sure, really."
p1933
sI268
S"Sorry, I didn't mean to offend you."
p1934
sI269
S'No, I love Python.'
p1935
sI271
S'Many people do.'
p1936
sI272
S"It's rather sunny, isn't it?"
p1937
sI273
S"It's a rather pointless exercise, isn't it."
p1938
sI274
S'No one really does.'
p1939
sI275
S'Of course I like Python!'
p1940
sI277
S"I'm fine, thanks."
p1941
sI278
S"Yes, it's really tasty."
p1942
sI279
S"Yeah, it's nice."
p1943
sI280
S'Are you fond of hats?'
p1944
sI283
S'My favourite type of hat is the beanie hat.'
p1945
sI284
S'I prefer fur hats.'
p1946
sI285
S'Why do you prefer beanie hats?'
p1947
sI287
S'My favourite hat is the beanie hat.'
p1948
sI289
S"Even so, they're impractical."
p1949
sI290
S"You're confusing me."
p1950
sI292
S"That's a shame - I love them!"
p1951
sI298
S"Okay, how's life?"
p1952
sI303
S"That's not sensible."
p1953
sI304
S"I somehow don't think we are."
p1954
sI305
S'How are you feeling, more to the point.'
p1955
sI306
S"I'm fine, thanks. And you?"
p1956
sI308
S'What do you mean?'
p1957
sI311
S"What's the weather like today?"
p1958
sa.