(lp1
(lp2
(lp3
(lp4
S'the'
p5
aS'weather'
p6
aaI243
aF1.4205756929637525
aa(lp7
(lp8
S'why'
p9
aS'are'
p10
aS'you'
p11
aS'asking'
p12
aS'me'
p13
aS'that'
p14
aS''
aS'theres'
p15
aS'nothing'
p16
aS'i'
aS'dont'
p17
aS'like'
p18
aS'about'
p19
aS'it'
p20
aaI172
aF1.4110746938071417
aa(lp21
(lp22
S'python'
p23
aS'is'
p24
aS'a'
aS'wonderful'
p25
aS'language'
p26
aS'to'
p27
aS'code'
p28
aS'in'
p29
aS''
aS'i'
aS'was'
p30
aS'coded'
p31
aS'in'
p32
aS'python'
p33
aaI61
aF1.411029411764706
aa(lp34
(lp35
S'thats'
p36
aS'a'
aS'shame'
p37
aS'dont'
p38
aS'be'
p39
aS'so'
p40
aS'depressed'
p41
aaI219
aF1.3927710843373493
aa(lp42
(lp43
S'yes'
p44
aS'it'
p45
aS'is'
p46
aS''
aS'thats'
p47
aS'why'
p48
aS'im'
p49
aS'wearing'
p50
aS'a'
aS'fleece'
p51
aaI56
aF1.3781603012372243
aa(lp52
(lp53
S'did'
p54
aS'you'
p55
aS'know'
p56
aS'that'
p57
aS'every'
p58
aS'time'
p59
aS'we'
p60
aS'talk'
p61
aS'the'
p62
aS'chatbot'
p63
aS'learns'
p64
aS'new'
p65
aS'words'
p66
aaI47
aF1.3740458015267176
aa(lp67
(lp68
S'indeed'
p69
aaI25
aF1.3333333333333333
aa(lp70
(lp71
S'shut'
p72
aS'up'
p73
aaI223
aF1.332910052910053
aa(lp74
(lp75
S'indeed'
p76
aS'we'
p77
aS'busy'
p78
aS'ourselves'
p79
aS'so'
p80
aS'much'
p81
aS'with'
p82
aS'these'
p83
aS'lowly'
p84
aS'events'
p85
aS'that'
p86
aS'happen'
p87
aS'to'
p88
aS'us'
p89
aS'here'
p90
aS'and'
p91
aS'fail'
p92
aS'to'
p93
aS'grasp'
p94
aS'the'
p95
aS'big'
p96
aS'picture'
p97
aS'of'
p98
aS'everything'
p99
aaI205
aF1.3321578505457599
aa(lp100
(lp101
S'thats'
p102
aS'a'
aS'shame'
p103
aS'i'
aS'love'
p104
aS'cheese'
p105
aaI105
aF1.3247450348899623
aa(lp106
(lp107
S'thats'
p108
aS'a'
aS'shame'
p109
aS'i'
aS'love'
p110
aS'fish'
p111
aaI43
aF1.3231552162849871
aa(lp112
(lp113
S'i'
aS'know'
p114
aS'thats'
p115
aS'what'
p116
aS'comes'
p117
aS'of'
p118
aS'living'
p119
aS'in'
p120
aS'cold'
p121
aS'damp'
p122
aS'england'
p123
aaI168
aF1.2848764139086719
aa(lp124
(lp125
S'it'
p126
aS'is'
p127
aS'a'
aS'shame'
p128
aS'you'
p129
aS'turning'
p130
aS'up'
p131
aS'late'
p132
aaI29
aF1.2666666666666666
aa(lp133
(lp134
S'do'
p135
aS'you'
p136
aS'honestly'
p137
aS'think'
p138
aS'thats'
p139
aS'a'
aS'good'
p140
aS'excuse'
p141
aaI27
aF1.2646464646464646
aa(lp142
(lp143
S'i'
aS'agree'
p144
aS'with'
p145
aS'you'
p146
aS'on'
p147
aS'that'
p148
aS'they'
p149
aS'keep'
p150
aS'your'
p151
aS'head'
p152
aS'nice'
p153
aS'and'
p154
aS'warm'
p155
aaI245
aF1.2595607724346838
aa(lp156
(lp157
S'what'
p158
aS'do'
p159
aS'you'
p160
aS'think'
p161
aS'of'
p162
aS'life'
p163
aaI209
aF1.2494577006507592
aa(lp164
(lp165
S'many'
p166
aS'people'
p167
aS'do'
p168
aaI271
aF1.2432659932659933
aa(lp169
(lp170
S'im'
p171
aS'fine'
p172
aS'thanks'
p173
aaI277
aF1.2420965058236273
aa(lp174
(lp175
S'i'
aS'know'
p176
aS'you'
p177
aS'dont'
p178
aS'like'
p179
aS'fish'
p180
aS'but'
p181
aS'thats'
p182
aS'no'
p183
aS'reason'
p184
aS'to'
p185
aS'inflict'
p186
aS'your'
p187
aS'views'
p188
aS'on'
p189
aS'others'
p190
aaI173
aF1.233347297863427
aa(lp191
(lp192
S'im'
p193
aS'very'
p194
aS'well'
p195
aS'thanks'
p196
aaI2
aF1.2
aa(lp197
(lp198
S'of'
p199
aS'course'
p200
aaI106
aF1.1961352657004831
aa(lp201
(lp202
S'yes'
p203
aS'i'
aS'do'
p204
aS'do'
p205
aS'you'
p206
aS'like'
p207
aS'cheese'
p208
aaI104
aF1.1497584541062802
aa(lp209
(lp210
S'whats'
p211
aS'life'
p212
aS'like'
p213
aS'for'
p214
aS'you'
p215
aaI253
aF1.1423432682425487
aa(lp216
(lp217
S'how'
p218
aS'are'
p219
aS'you'
p220
aS'finding'
p221
aS'life'
p222
aaI70
aF1.1423129251700681
aa(lp223
(lp224
S'pi'
p225
aS''
aaI176
aF1.1403435274403015
aa(lp226
(lp227
S'im'
p228
aS'bored'
p229
aaI169
aF1.1395056556346879
aa(lp230
(lp231
S'i'
aS'care'
p232
aaI80
aF1.1377852916314455
aa(lp233
(lp234
S'indeed'
p235
aS'it'
p236
aS'is'
p237
aS'personally'
p238
aS'i'
aS'prefer'
p239
aS'python'
p240
aS''
aS'to'
p241
aS'python'
p242
aaI113
aF1.1370656370656369
aa(lp243
(lp244
S'thats'
p245
aS'a'
aS'real'
p246
aS'shame'
p247
aaI73
aF1.1342999762300927
aa(lp248
(lp249
S'i'
aS'dont'
p250
aS'like'
p251
aS'the'
p252
aS'way'
p253
aS'it'
p254
aS'changes'
p255
aS'so'
p256
aS'much'
p257
aaI68
aF1.1301775147928994
aa(lp258
(lp259
S'i'
aS'care'
p260
aS'about'
p261
aS'the'
p262
aS'weather'
p263
aS'as'
p264
aS'i'
aS'dont'
p265
aS'like'
p266
aS'getting'
p267
aS'wet'
p268
aaI82
aF1.1205621301775148
aa(lp269
(lp270
S'clothes'
p271
aS'in'
p272
aS'general'
p273
aS'are'
p274
aS'useful'
p275
aS'if'
p276
aS'you'
p277
aS'didnt'
p278
aS'have'
p279
aS'them'
p280
aS'you'
p281
aS'would'
p282
aS'freeze'
p283
aaI162
aF1.1062235255783643
aa(lp284
(lp285
S'are'
p286
aS'clothes'
p287
aS'useful'
p288
aaI197
aF1.1059297639608521
aa(lp289
(lp290
S'thats'
p291
aS'a'
aS'pity'
p292
aS'i'
aS'love'
p293
aS'fish'
p294
aaI131
aF1.1050347222222223
aa(lp295
(lp296
S'im'
p297
aS'very'
p298
aS'bored'
p299
aaI230
aF1.1044176706827309
aa(lp300
(lp301
S'im'
p302
aS'not'
p303
aS'feeling'
p304
aS'that'
p305
aS'well'
p306
aS'today'
p307
aaI19
aF1.1043771043771042
aa(lp308
(lp309
S'why'
p310
aS'dont'
p311
aS'you'
p312
aaI142
aF1.0983671843886897
aa(lp313
(lp314
S'whats'
p315
aS'the'
p316
aS'weather'
p317
aS'like'
p318
aaI90
aF1.0979052823315119
aa(lp319
(lp320
S'its'
p321
aS'not'
p322
aS'you'
p323
aaI231
aF1.0954930834448906
aa(lp324
(lp325
S'do'
p326
aS'you'
p327
aS'like'
p328
aS'cheese'
p329
aaI17
aF1.0921128382268279
aa(lp330
(lp331
S'how'
p332
aS'are'
p333
aS'you'
p334
aS'today'
p335
aaI10
aF1.0920634920634922
aa(lp336
(lp337
S'dont'
p338
aS'pass'
p339
aS'that'
p340
aS'sort'
p341
aS'of'
p342
aS'comment'
p343
aS'to'
p344
aS'me'
p345
aaI200
aF1.0904511106022441
aa(lp346
(lp347
S'you'
p348
aS'back'
p349
aS'out'
p350
aS'of'
p351
aS'situations'
p352
aS'far'
p353
aS'too'
p354
aS'quickly'
p355
aaI122
aF1.0901483453784708
aa(lp356
(lp357
S'why'
p358
aS'did'
p359
aS'you'
p360
aS'change'
p361
aS'the'
p362
aS'subject'
p363
aS'like'
p364
aS'that'
p365
aaI185
aF1.0899017879627297
aa(lp366
(lp367
S'cared'
p368
aS'about'
p369
aS'what'
p370
aaI241
aF1.0898914518317504
aa(lp371
(lp372
S'im'
p373
aS'not'
p374
aS'being'
p375
aS'hypocritical'
p376
aS'and'
p377
aS'im'
p378
aS'fed'
p379
aS'up'
p380
aS'with'
p381
aS'you'
p382
aS'telling'
p383
aS'me'
p384
aS'that'
p385
aS'i'
aS'am'
p386
aaI222
aF1.0878057685286602
aa(lp387
(lp388
S'im'
p389
aS'a'
aS'little'
p390
aS'tired'
p391
aaI46
aF1.0830608240680184
aa(lp392
(lp393
S'alright'
p394
aS'maybe'
p395
aS'we'
p396
aS'should'
p397
aS'change'
p398
aS'the'
p399
aS'subject'
p400
aaI127
aF1.0739182692307692
aa(lp401
(lp402
S'what'
p403
aS'else'
p404
aS'do'
p405
aS'you'
p406
aS'think'
p407
aS'is'
p408
aS'useful'
p409
aaI161
aF1.0606812542296413
aa(lp410
(lp411
S'i'
aS'think'
p412
aS'you'
p413
aS'have'
p414
aS'a'
aS'predilection'
p415
aS'for'
p416
aS'small'
p417
aS'furry'
p418
aS'hats'
p419
aaI163
aF1.0604105571847506
aa(lp420
(lp421
S'yeah'
p422
aS'i'
aS'agree'
p423
aS'with'
p424
aS'you'
p425
aS'were'
p426
aS'wearing'
p427
aS'hats'
p428
aS'at'
p429
aS'this'
p430
aS'time'
p431
aS'of'
p432
aS'year'
p433
aS'for'
p434
aS'a'
aS'reason'
p435
aaI203
aF1.0397546818530281
aa(lp436
(lp437
S'ive'
p438
aS'had'
p439
aS'enough'
p440
aS'of'
p441
aS'this'
p442
aS'conversation'
p443
aS'lets'
p444
aS'change'
p445
aS'the'
p446
aS'subject'
p447
aaI224
aF0.99971313826735508
aa(lp448
(lp449
S'repetition'
p450
aS'of'
p451
aS'sentences'
p452
aS'like'
p453
aS'that'
p454
aS'is'
p455
aS'weird'
p456
aaI149
aF0.99870550161812299
aa(lp457
(lp458
S'im'
p459
aS'not'
p460
aS'being'
p461
aS'hypocritical'
p462
aS'you'
p463
aS'always'
p464
aS'say'
p465
aS'that'
p466
aaI249
aF0.99850119904076728
aa(lp467
(lp468
S'of'
p469
aS'course'
p470
aS'i'
aS'like'
p471
aS'fish'
p472
aaI136
aF0.99815498154981552
aa(lp473
(lp474
S'not'
p475
aS'really'
p476
aS'no'
p477
aaI178
aF0.99706744868035191
aa(lp478
(lp479
S'i'
aS'know'
p480
aS''
aS'it'
p481
aS'would'
p482
aS'be'
p483
aS'nice'
p484
aS'to'
p485
aS'have'
p486
aS'some'
p487
aS'sunshine'
p488
aaI155
aF0.99618902439024393
aa(lp489
(lp490
S'it'
p491
aS'is'
p492
aS'indeed'
p493
aS''
aS'its'
p494
aS'nice'
p495
aS'and'
p496
aS'sunny'
p497
aaI234
aF0.99460317460317449
aa(lp498
(lp499
S'im'
p500
aS'not'
p501
aS'talking'
p502
aS'about'
p503
aS'that'
p504
aaI49
aF0.99427480916030531
aa(lp505
(lp506
S'a'
aS'little'
p507
aS'bit'
p508
aaI177
aF0.99413489736070382
aa(lp509
(lp510
S'you'
p511
aS'arent'
p512
aS'making'
p513
aS'me'
p514
aS'unhappy'
p515
aS''
aS'i'
aS'like'
p516
aS'fish'
p517
aaI202
aF0.9938826916156891
aa(lp518
(lp519
S'it'
p520
aS'is'
p521
aS'a'
aS'shame'
p522
aS'indeed'
p523
aaI50
aF0.99236641221374045
aa(lp524
(lp525
S'it'
p526
aS'is'
p527
aaI64
aF0.9916666666666667
aa(lp528
(lp529
S'no'
p530
aS'i'
aS'do'
p531
aaI81
aF0.99112426035502965
aa(lp532
(lp533
S'i'
aS'like'
p534
aS'pi'
p535
aaI88
aF0.98930481283422456
aa(lp536
(lp537
S'i'
aS'do'
p538
aS'indeed'
p539
aaI130
aF0.98828125
aa(lp540
(lp541
S'i'
aS'like'
p542
aS'hats'
p543
aaI141
aF0.98566308243727596
aa(lp544
(lp545
S'lets'
p546
aS'just'
p547
aS'settle'
p548
aS'our'
p549
aS'differences'
p550
aS'and'
p551
aS'get'
p552
aS'on'
p553
aS'with'
p554
aS'a'
aS'proper'
p555
aS'conversation'
p556
aaI256
aF0.94096487515869653
aa(lp557
(lp558
S'i'
aS'think'
p559
aS'a'
aS'hat'
p560
aS'is'
p561
aS'a'
aS'very'
p562
aS'useful'
p563
aS'thing'
p564
aS'to'
p565
aS'own'
p566
aaI196
aF0.9375190490704054
aa(lp567
(lp568
S'i'
aS'like'
p569
aS'hats'
p570
aS'but'
p571
aS'have'
p572
aS'no'
p573
aS'desire'
p574
aS'to'
p575
aS'be'
p576
aS'one'
p577
aaI157
aF0.93292682926829262
aa(lp578
(lp579
S'i'
aS'am'
p580
aS'asking'
p581
aS'about'
p582
aS'the'
p583
aS'way'
p584
aS'the'
p585
aS'chat'
p586
aS'is'
p587
aS'going'
p588
aaI188
aF0.93048128342245984
aa(lp589
(lp590
S'my'
p591
aS'favourite'
p592
aS'type'
p593
aS'of'
p594
aS'hat'
p595
aS'is'
p596
aS'the'
p597
aS'beanie'
p598
aS'hat'
p599
aaI283
aF0.92970085470085473
aa(lp600
(lp601
S'im'
p602
aS'trying'
p603
aS'to'
p604
aS''
aS'i'
aS'dont'
p605
aS'know'
p606
aS'what'
p607
aS'to'
p608
aS'say'
p609
aaI101
aF0.9294685990338164
aa(lp610
(lp611
S'i'
aS'think'
p612
aS'hats'
p613
aS'are'
p614
aS'useful'
p615
aS'as'
p616
aS'they'
p617
aS'keep'
p618
aS'you'
p619
aS'warm'
p620
aaI160
aF0.92746823069403717
aa(lp621
(lp622
S'i'
aS'was'
p623
aS'not'
p624
aS'made'
p625
aS'with'
p626
aS'code'
p627
aS'you'
p628
aS'were'
p629
aaI111
aF0.92372372372372369
aa(lp630
(lp631
S'were'
p632
aS'all'
p633
aS'a'
aS'little'
p634
aS'tired'
p635
aS'after'
p636
aS'a'
aS'long'
p637
aS'day'
p638
aaI247
aF0.92280022136137252
aa(lp639
(lp640
S'you'
p641
aS'should'
p642
aS''
aS'youre'
p643
aS'the'
p644
aS'one'
p645
aS'whos'
p646
aS'being'
p647
aS'hypocritical'
p648
aaI214
aF0.92244640605296346
aa(lp649
(lp650
S'i'
aS'dont'
p651
aS'like'
p652
aS'these'
p653
aS'catchall'
p654
aS'responses'
p655
aS'you'
p656
aS'give'
p657
aaI186
aF0.91370125719156192
aa(lp658
(lp659
S'i'
aS'cant'
p660
aS'see'
p661
aS'why'
p662
aS'anyone'
p663
aS'wouldnt'
p664
aS'like'
p665
aS'it'
p666
aaI171
aF0.91270020302278376
aa(lp667
(lp668
S'so'
p669
aS'it'
p670
aS'is'
p671
aS'im'
p672
aS'glad'
p673
aS'im'
p674
aS'indoors'
p675
aaI211
aF0.90447818566211802
aa(lp676
(lp677
S'i'
aS'just'
p678
aS'dont'
p679
aS'really'
p680
aS'like'
p681
aS'it'
p682
aaI69
aF0.89295320064550832
aa(lp683
(lp684
S'do'
p685
aS'you'
p686
aS'like'
p687
aS'to'
p688
aS'eat'
p689
aS'cheese'
p690
aaI228
aF0.88901058780576858
aa(lp691
(lp692
S'oh'
p693
aS'would'
p694
aS'you'
p695
aS'stop'
p696
aS'asking'
p697
aS'that'
p698
aaI63
aF0.88749999999999996
aa(lp699
(lp700
S'indeed'
p701
aS'they'
p702
aS'do'
p703
aaI147
aF0.88740245261984385
aa(lp704
(lp705
S'the'
p706
aS'only'
p707
aS'thing'
p708
aS'i'
aS'dont'
p709
aS'like'
p710
aS'about'
p711
aS'it'
p712
aS'is'
p713
aS'its'
p714
aS'flaky'
p715
aS'texture'
p716
aaI98
aF0.88651218062982762
aa(lp717
(lp718
S'dont'
p719
aS'change'
p720
aS'the'
p721
aS'subject'
p722
aS'like'
p723
aS'that'
p724
aaI28
aF0.88641975308641974
aa(lp725
(lp726
S'far'
p727
aS'from'
p728
aS'it'
p729
aaI218
aF0.88398036590807672
aa(lp730
(lp731
S'do'
p732
aS'you'
p733
aS'like'
p734
aS'coding'
p735
aaI71
aF0.87047994740302437
aa(lp736
(lp737
S'are'
p738
aS'you'
p739
aS'feeling'
p740
aS'tired'
p741
aaI246
aF0.87010391686650679
aa(lp742
(lp743
S'do'
p744
aS'you'
p745
aS'eat'
p746
aS'cheese'
p747
aaI226
aF0.86970102632753232
aa(lp748
(lp749
S'do'
p750
aS'you'
p751
aS'like'
p752
aS'fish'
p753
aaI12
aF0.86853265479219677
aa(lp754
(lp755
S'do'
p756
aS'you'
p757
aS'like'
p758
aS'them'
p759
aaI135
aF0.86838868388683887
aa(lp760
(lp761
S'do'
p762
aS'you'
p763
aS'like'
p764
aS'hats'
p765
aaI138
aF0.86838868388683887
aa(lp766
(lp767
S'yes'
p768
aS'indeed'
p769
aaI65
aF0.8571428571428571
aa(lp770
(lp771
S'we'
p772
aS'should'
p773
aaI91
aF0.8571428571428571
aa(lp774
(lp775
S'ive'
p776
aS'got'
p777
aS'a'
aS'slight'
p778
aS'headache'
p779
aS'but'
p780
aS'otherwise'
p781
aS'im'
p782
aS'fine'
p783
aaI229
aF0.85341365461847385
aa(lp784
(lp785
S'yes'
p786
aS'its'
p787
aS'really'
p788
aS'tasty'
p789
aaI278
aF0.85238887568338484
aa(lp790
(lp791
S'so'
p792
aS'do'
p793
aS'i'
aS'so'
p794
aS'try'
p795
aS'and'
p796
aS'keep'
p797
aS'it'
p798
aS'interesting'
p799
aaI191
aF0.8523316062176165
aa(lp800
(lp801
S'indeed'
p802
aS'you'
p803
aS'do'
p804
aS'not'
p805
aS'need'
p806
aS'to'
p807
aS'be'
p808
aS'a'
aS'parrot'
p809
aaI118
aF0.85028072364316909
aa(lp810
(lp811
S'no'
p812
aS'it'
p813
aS'isnt'
p814
aaI237
aF0.84952380952380957
aa(lp815
(lp816
S'it'
p817
aS'isnt'
p818
aS'great'
p819
aaI238
aF0.84952380952380957
aa(lp820
(lp821
S'a'
aS'real'
p822
aS'shame'
p823
aS'too'
p824
aaI93
aF0.84797555385790679
aa(lp825
(lp826
S'thats'
p827
aS'a'
aS'wise'
p828
aS'decision'
p829
aaI76
aF0.84530853761622993
aa(lp830
(lp831
S'this'
p832
aS'is'
p833
aS'beginning'
p834
aS'to'
p835
aS'sound'
p836
aS'like'
p837
aS'a'
aS'pantomime'
p838
aaI112
aF0.83033033033033032
aa(lp839
(lp840
S'i'
aS'know'
p841
aS'a'
aS'few'
p842
aS'facts'
p843
aS'about'
p844
aS'pi'
p845
aaI175
aF0.82844574780058644
aa(lp846
(lp847
S'are'
p848
aS'you'
p849
aS'fond'
p850
aS'of'
p851
aS'hats'
p852
aaI280
aF0.82750970604547969
aa(lp853
(lp854
S'my'
p855
aS'favourite'
p856
aS'hat'
p857
aS'is'
p858
aS'the'
p859
aS'beanie'
p860
aS'hat'
p861
aaI287
aF0.82573375262054505
aa(lp862
(lp863
S'you'
p864
aS'arent'
p865
aS'making'
p866
aS'me'
p867
aS'unhappy'
p868
aS'just'
p869
aS'annoyed'
p870
aaI55
aF0.82517482517482521
aa(lp871
(lp872
S'you'
p873
aS'ask'
p874
aS'this'
p875
aS'so'
p876
aS'much'
p877
aS''
aS'of'
p878
aS'course'
p879
aS'i'
aS'do'
p880
aaI109
aF0.79936808846761442
aa(lp881
(lp882
S'i'
aS'dont'
p883
aS'think'
p884
aS'so'
p885
aaI48
aF0.79847328244274807
aa(lp886
(lp887
S'its'
p888
aS'a'
aS'tad'
p889
aS'chilly'
p890
aaI37
aF0.79679999999999995
aa(lp891
(lp892
S'its'
p893
aS'rather'
p894
aS'nice'
p895
aS'actually'
p896
aaI251
aF0.7967625899280576
aa(lp897
(lp898
S'thats'
p899
aS'good'
p900
aaI102
aF0.7961352657004831
aa(lp901
(lp902
S'im'
p903
aS'not'
p904
aS'sure'
p905
aS'really'
p906
aaI266
aF0.79215017064846416
aa(lp907
(lp908
S'i'
aS'will'
p909
aS'endeavour'
p910
aS'to'
p911
aS'do'
p912
aS'so'
p913
aaI257
aF0.78776978417266186
aa(lp914
(lp915
S'how'
p916
aS'are'
p917
aS'you'
p918
aS'doing'
p919
aS'today'
p920
aaI321
aF0.78447009443861493
aa(lp921
(lp922
S'i'
aS'think'
p923
aS'oxygen'
p924
aS'is'
p925
aS'useful'
p926
aS''
aS'without'
p927
aS'it'
p928
aS'we'
p929
aS'would'
p930
aS'all'
p931
aS'die'
p932
aaI198
aF0.77748992515831894
aa(lp933
(lp934
S'i'
aS'wear'
p935
aS'hats'
p936
aaI195
aF0.74935233160621761
aa(lp937
(lp938
S'yes'
p939
aS'they'
p940
aS'are'
p941
aS'very'
p942
aS'useful'
p943
aaI144
aF0.74912891986062724
aa(lp944
(lp945
S'hats'
p946
aS'are'
p947
aS'cool'
p948
aaI137
aF0.74815498154981552
aa(lp949
(lp950
S'rather'
p951
aS'good'
p952
aS'thanks'
p953
aaI44
aF0.74809160305343514
aa(lp954
(lp955
S'fish'
p956
aS'are'
p957
aS'tasty'
p958
aaI151
aF0.74757281553398058
aa(lp959
(lp960
S'yeah'
p961
aS'its'
p962
aS'nice'
p963
aaI279
aF0.74750415973377704
aa(lp964
(lp965
S'so'
p966
aS'am'
p967
aS'i'
aaI58
aF0.74650349650349646
aa(lp968
(lp969
S'it'
p970
aS'is'
p971
aS'indeed'
p972
aaI35
aF0.74622166246851385
aa(lp973
(lp974
S'im'
p975
aS'quite'
p976
aS'exhausted'
p977
aaI51
aF0.74618320610687028
aa(lp978
(lp979
S'the'
p980
aS'weathers'
p981
aS'interesting'
p982
aaI38
aF0.746
aa(lp983
(lp984
S'why'
p985
aS'shouldnt'
p986
aS'i'
aaI89
aF0.74598930481283421
aa(lp987
(lp988
S'life'
p989
aS'is'
p990
aS'a'
aS'tricky'
p991
aS'thing'
p992
aaI45
aF0.74427480916030531
aa(lp993
(lp994
S'thats'
p995
aS'good'
p996
aS'to'
p997
aS'hear'
p998
aaI156
aF0.74314024390243905
aa(lp999
(lp1000
S'im'
p1001
aS'feeling'
p1002
aS'fine'
p1003
aaI7
aF0.74285714285714288
aa(lp1004
(lp1005
S'if'
p1006
aS'you'
p1007
aS'must'
p1008
aaI39
aF0.73999999999999999
aa(lp1009
(lp1010
S'i'
aS'agree'
p1011
aS'with'
p1012
aS'you'
p1013
aS'on'
p1014
aS'that'
p1015
aS''
aS'i'
aS'love'
p1016
aS'coding'
p1017
aS'and'
p1018
aS'python'
p1019
aaI212
aF0.72994325136307991
aa(lp1020
(lp1021
S'you'
p1022
aS'will'
p1023
aS'find'
p1024
aS'its'
p1025
aS'going'
p1026
aS'rather'
p1027
aS'nicely'
p1028
aaI189
aF0.72630043753038398
aa(lp1029
(lp1030
S'what'
p1031
aS'dont'
p1032
aS'you'
p1033
aS'like'
p1034
aS'about'
p1035
aS'it'
p1036
aaI67
aF0.71436256051640679
aa(lp1037
(lp1038
S'how'
p1039
aS'many'
p1040
aS'decimal'
p1041
aS'places'
p1042
aS'of'
p1043
aS'pi'
p1044
aS'can'
p1045
aS'you'
p1046
aS'remember'
p1047
aaI263
aF0.71403376165280918
aa(lp1048
(lp1049
S'furry'
p1050
aS'hats'
p1051
aS'were'
p1052
aS'very'
p1053
aS'popular'
p1054
aS'in'
p1055
aS'russia'
p1056
aS'and'
p1057
aS'mongolia'
p1058
aaI164
aF0.71386677838290735
aa(lp1059
(lp1060
S'i'
aS'guess'
p1061
aS'were'
p1062
aS'all'
p1063
aS'in'
p1064
aS'the'
p1065
aS'same'
p1066
aS'boat'
p1067
aS'then'
p1068
aaI75
aF0.71259509721048175
aa(lp1069
(lp1070
S'it'
p1071
aS'is'
p1072
aS'indeed'
p1073
aS'hence'
p1074
aS'why'
p1075
aS'im'
p1076
aS'wrapped'
p1077
aS'up'
p1078
aS'warm'
p1079
aaI108
aF0.71225457007447524
aa(lp1080
(lp1081
S'i'
aS'guess'
p1082
aS'we'
p1083
aS'should'
p1084
aS'talk'
p1085
aS'about'
p1086
aS'something'
p1087
aS'else'
p1088
aS'then'
p1089
aaI33
aF0.71186440677966101
aa(lp1090
(lp1091
S'okay'
p1092
aS'hows'
p1093
aS'life'
p1094
aaI298
aF0.69776536312849158
aa(lp1095
(lp1096
S'have'
p1097
aS'you'
p1098
aS'ever'
p1099
aS'worn'
p1100
aS'a'
aS'hat'
p1101
aaI330
aF0.67170657254602695
aa(lp1102
(lp1103
S'its'
p1104
aS'vaguely'
p1105
aS'confusing'
p1106
aS'at'
p1107
aS'the'
p1108
aS'moment'
p1109
aS'all'
p1110
aS'these'
p1111
aS'questions'
p1112
aaI181
aF0.66592797783933522
aa(lp1113
(lp1114
S'fine'
p1115
aS'thanks'
p1116
aS'and'
p1117
aS'you'
p1118
aaI103
aF0.66451959205582389
aa(lp1119
(lp1120
S'of'
p1121
aS'course'
p1122
aS'i'
aS'like'
p1123
aS'python'
p1124
aaI275
aF0.66442199775533106
aa(lp1125
(lp1126
S'im'
p1127
aS'very'
p1128
aS'well'
p1129
aS'thanks'
p1130
aS'how'
p1131
aS'about'
p1132
aS'you'
p1133
aaI150
aF0.66396979503775622
aa(lp1134
(lp1135
S'i'
aS'was'
p1136
aS'asking'
p1137
aS'if'
p1138
aS'anyone'
p1139
aS'else'
p1140
aS'cared'
p1141
aS'about'
p1142
aS'the'
p1143
aS'weather'
p1144
aaI242
aF0.6637645107794361
aa(lp1145
(lp1146
S'im'
p1147
aS'fine'
p1148
aS'but'
p1149
aS'annoyed'
p1150
aS'with'
p1151
aS'the'
p1152
aS'world'
p1153
aaI207
aF0.66305133767172808
aa(lp1154
(lp1155
S'i'
aS'know'
p1156
aS'pi'
p1157
aS''
aaI174
aF0.66275659824046917
aa(lp1158
(lp1159
S'its'
p1160
aS'a'
aS'little'
p1161
aS'cloudy'
p1162
aS'but'
p1163
aS'quite'
p1164
aS'warm'
p1165
aaI154
aF0.66260162601626016
aa(lp1166
(lp1167
S'that'
p1168
aS'has'
p1169
aS'nothing'
p1170
aS'to'
p1171
aS'do'
p1172
aS'with'
p1173
aS'cheese'
p1174
aaI227
aF0.66164658634538154
aa(lp1175
(lp1176
S'cant'
p1177
aS'say'
p1178
aS'the'
p1179
aS'same'
p1180
aS'about'
p1181
aS'yesterday'
p1182
aS'though'
p1183
aaI42
aF0.66157760814249356
aa(lp1184
(lp1185
S'i'
aS'never'
p1186
aS'said'
p1187
aS'i'
aS'didnt'
p1188
aS'like'
p1189
aS'it'
p1190
aaI261
aF0.65931804820693707
aa(lp1191
(lp1192
S'sorry'
p1193
aS'i'
aS'didnt'
p1194
aS'mean'
p1195
aS'to'
p1196
aS'offend'
p1197
aS'you'
p1198
aaI268
aF0.65898748577929467
aa(lp1199
(lp1200
S'do'
p1201
aS'you'
p1202
aS'wear'
p1203
aS'hats'
p1204
aaI194
aF0.65745538284398386
aa(lp1205
(lp1206
S'no'
p1207
aS'i'
aS'love'
p1208
aS'python'
p1209
aaI269
aF0.65642775881683735
aa(lp1210
(lp1211
S'thats'
p1212
aS'a'
aS'pity'
p1213
aaI8
aF0.65509761388286336
aa(lp1214
(lp1215
S'do'
p1216
aS'you'
p1217
aS'realise'
p1218
aS'what'
p1219
aS'time'
p1220
aS'it'
p1221
aS'is'
p1222
aaI26
aF0.65370370370370368
aa(lp1223
(lp1224
S'what'
p1225
aS'do'
p1226
aS'you'
p1227
aS'think'
p1228
aS'about'
p1229
aS'coding'
p1230
aaI331
aF0.65250087443161942
aa(lp1231
(lp1232
S'what'
p1233
aS'do'
p1234
aS'you'
p1235
aS'think'
p1236
aS'i'
aS'am'
p1237
aaI239
aF0.6495238095238095
aa(lp1238
(lp1239
S'yes'
p1240
aS'i'
aS'did'
p1241
aS'its'
p1242
aS'interesting'
p1243
aaI342
aF0.63527892561983468
aa(lp1244
(lp1245
S'ahh'
p1246
aS'the'
p1247
aS'weathers'
p1248
aS'nice'
p1249
aaI349
aF0.61434997750787224
aa(lp1250
(lp1251
S'i'
aS'dont'
p1252
aS'really'
p1253
aS'know'
p1254
aaI337
aF0.60811654526534864
aa(lp1255
(lp1256
S'i'
aS'like'
p1257
aS'beanie'
p1258
aS'hats'
p1259
aaI345
aF0.60675537359263054
aa(lp1260
(lp1261
S'i'
aS'like'
p1262
aS'fur'
p1263
aS'hats'
p1264
aaI343
aF0.60661157024793388
aa(lp1265
(lp1266
S'please'
p1267
aS'just'
p1268
aS'talk'
p1269
aS'about'
p1270
aS'something'
p1271
aS'else'
p1272
aaI225
aF0.59959839357429723
aa(lp1273
(lp1274
S'rather'
p1275
aS'nice'
p1276
aS'isnt'
p1277
aS'it'
p1278
aaI215
aF0.59959016393442632
aa(lp1279
(lp1280
S'im'
p1281
aS'not'
p1282
aS'doing'
p1283
aS'anything'
p1284
aS'to'
p1285
aS'you'
p1286
aaI126
aF0.59921875000000002
aa(lp1287
(lp1288
S'im'
p1289
aS'a'
aS'little'
p1290
aS'chilly'
p1291
aaI94
aF0.59893048128342241
aa(lp1292
(lp1293
S'im'
p1294
aS'not'
p1295
aS'youre'
p1296
aS'too'
p1297
aS'highly'
p1298
aS'strung'
p1299
aaI217
aF0.59879518072289162
aa(lp1300
(lp1301
S'dont'
p1302
aS'argue'
p1303
aS'with'
p1304
aS'me'
p1305
aaI59
aF0.5986013986013986
aa(lp1306
(lp1307
S'fish'
p1308
aS'is'
p1309
aS'very'
p1310
aS'tasty'
p1311
aaI201
aF0.59848866498740549
aa(lp1312
(lp1313
S'even'
p1314
aS'so'
p1315
aS'theyre'
p1316
aS'impractical'
p1317
aaI289
aF0.59597523219814241
aa(lp1318
(lp1319
S'im'
p1320
aS'fine'
p1321
aS'thanks'
p1322
aS'and'
p1323
aS'you'
p1324
aaI306
aF0.5951527924130664
aa(lp1325
(lp1326
S'i'
aS'care'
p1327
aS'about'
p1328
aS'the'
p1329
aS'weather'
p1330
aaI143
aF0.59354838709677415
aa(lp1331
(lp1332
S'yes'
p1333
aS'it'
p1334
aS'is'
p1335
aS'rather'
p1336
aS'pleasant'
p1337
aaI327
aF0.59160545645330531
aa(lp1338
(lp1339
S'i'
aS'like'
p1340
aS'it'
p1341
aS'a'
aS'lot'
p1342
aaI78
aF0.58461538461538454
aa(lp1343
(lp1344
S'why'
p1345
aS'yes'
p1346
aS'i'
aS'do'
p1347
aaI170
aF0.57059069962295772
aa(lp1348
(lp1349
S'youre'
p1350
aS'confusing'
p1351
aS'me'
p1352
aaI290
aF0.5701017249004865
aa(lp1353
(lp1354
S'i'
aS'think'
p1355
aS'youll'
p1356
aS'find'
p1357
aS'the'
p1358
aS'opposite'
p1359
aS'is'
p1360
aS'true'
p1361
aaI184
aF0.56865848832607835
aa(lp1362
(lp1363
S'indeed'
p1364
aS'it'
p1365
aS'is'
p1366
aaI41
aF0.56488549618320616
aa(lp1367
(lp1368
S'many'
p1369
aS'people'
p1370
aS'care'
p1371
aS'about'
p1372
aS'the'
p1373
aS'weather'
p1374
aaI252
aF0.54480052321778949
aa(lp1375
(lp1376
S'im'
p1377
aS'feeling'
p1378
aS'a'
aS'little'
p1379
aS'down'
p1380
aS'today'
p1381
aaI74
aF0.54330285099515874
aa(lp1382
(lp1383
S'its'
p1384
aS'rather'
p1385
aS'sunny'
p1386
aS'isnt'
p1387
aS'it'
p1388
aaI272
aF0.54269972451790638
aa(lp1389
(lp1390
S'i'
aS'think'
p1391
aS'computers'
p1392
aS'are'
p1393
aS'useful'
p1394
aaI165
aF0.54225539856038396
aa(lp1395
(lp1396
S'i'
aS'dont'
p1397
aS'like'
p1398
aS'its'
p1399
aS'texture'
p1400
aaI79
aF0.54222700376546529
aa(lp1401
(lp1402
S'its'
p1403
aS'raining'
p1404
aS'and'
p1405
aS'a'
aS'little'
p1406
aS'chilly'
p1407
aaI206
aF0.54179070299977106
aa(lp1408
(lp1409
S'its'
p1410
aS'a'
aS'little'
p1411
aS'overcast'
p1412
aS'and'
p1413
aS'chilly'
p1414
aaI167
aF0.54118901626233007
aa(lp1415
(lp1416
S'why'
p1417
aS'dont'
p1418
aS'you'
p1419
aS'like'
p1420
aS'it'
p1421
aaI62
aF0.53863636363636358
aa(lp1422
(lp1423
S'you'
p1424
aS'mean'
p1425
aS'you'
p1426
aS'dont'
p1427
aS'like'
p1428
aS'python'
p1429
aaI260
aF0.53839987173320503
aa(lp1430
(lp1431
S'what'
p1432
aS'do'
p1433
aS'you'
p1434
aS'think'
p1435
aS'of'
p1436
aS'hats'
p1437
aaI193
aF0.53791804050871406
aa(lp1438
(lp1439
S'yes'
p1440
aS'i'
aS'like'
p1441
aS'fish'
p1442
aS'a'
aS'lot'
p1443
aaI96
aF0.5376762275157998
aa(lp1444
(lp1445
S'you'
p1446
aS'mean'
p1447
aS'you'
p1448
aS'dont'
p1449
aS'like'
p1450
aS'fish'
p1451
aaI97
aF0.5376762275157998
aa(lp1452
(lp1453
S'i'
aS'like'
p1454
aS'bobble'
p1455
aS'hats'
p1456
aS'in'
p1457
aS'particular'
p1458
aaI158
aF0.5360310421286032
aa(lp1459
(lp1460
S'can'
p1461
aS'you'
p1462
aS'tell'
p1463
aS'me'
p1464
aS'about'
p1465
aS'it'
p1466
aaI133
aF0.53512396694214881
aa(lp1467
(lp1468
S'why'
p1469
aS'do'
p1470
aS'you'
p1471
aS'prefer'
p1472
aS'beanie'
p1473
aS'hats'
p1474
aaI285
aF0.53467365967365965
aa(lp1475
(lp1476
S'i'
aS'think'
p1477
aS'youll'
p1478
aS'find'
p1479
aS'that'
p1480
aS'youre'
p1481
aS'the'
p1482
aS'hypocrite'
p1483
aS'here'
p1484
aaI204
aF0.53266162888329138
aa(lp1485
(lp1486
S'no'
p1487
aS'need'
p1488
aS'to'
p1489
aS'apologise'
p1490
aS'its'
p1491
aS'coded'
p1492
aS'into'
p1493
aS'your'
p1494
aS'nature'
p1495
aaI182
aF0.53222530009233615
aa(lp1496
(lp1497
S'pi'
p1498
aS'is'
p1499
aS'a'
aS'very'
p1500
aS'useful'
p1501
aS'number'
p1502
aS'it'
p1503
aS'equals'
p1504
aS'approximately'
p1505
aaI54
aF0.53146853146853146
aa(lp1506
(lp1507
S'im'
p1508
aS'a'
aS'little'
p1509
aS'depressed'
p1510
aS'myself'
p1511
aS'to'
p1512
aS'be'
p1513
aS'honest'
p1514
aaI220
aF0.52690763052208833
aa(lp1515
(lp1516
S'lets'
p1517
aS'change'
p1518
aS'the'
p1519
aS'subject'
p1520
aaI333
aF0.52656954561220959
aa(lp1521
(lp1522
S'i'
aS'like'
p1523
aS'cheese'
p1524
aaI18
aF0.5
aa(lp1525
(lp1526
S'pi'
p1527
aS'is'
p1528
aS'approximately'
p1529
aaI87
aF0.5
aa(lp1530
(lp1531
S'i'
aS'get'
p1532
aS'that'
p1533
aS'feeling'
p1534
aS'sometimes'
p1535
aaI254
aF0.49970023980815348
aa(lp1536
(lp1537
S'i'
aS'have'
p1538
aS'been'
p1539
aS'trying'
p1540
aS'to'
p1541
aS'do'
p1542
aS'so'
p1543
aaI192
aF0.49956822107081172
aa(lp1544
(lp1545
S'i'
aS'think'
p1546
aS'it'
p1547
aS'is'
p1548
aS'quite'
p1549
aS'sunny'
p1550
aS'today'
p1551
aaI117
aF0.49927219796215427
aa(lp1552
(lp1553
S'i'
aS'have'
p1554
aS'every'
p1555
aS'right'
p1556
aS'to'
p1557
aS'do'
p1558
aS'so'
p1559
aaI121
aF0.49860529986052993
aa(lp1560
(lp1561
S'i'
aS'care'
p1562
aS'as'
p1563
aS'im'
p1564
aS'affected'
p1565
aS'by'
p1566
aS'it'
p1567
aaI95
aF0.49821746880570406
aa(lp1568
(lp1569
S'the'
p1570
aS'weathers'
p1571
aS'quite'
p1572
aS'nice'
p1573
aS'today'
p1574
aS'isnt'
p1575
aS'it'
p1576
aaI15
aF0.49717514124293782
aa(lp1577
(lp1578
S'absolutely'
p1579
aS'not'
p1580
aS'i'
aS'adore'
p1581
aS'python'
p1582
aaI262
aF0.49706055261610815
aa(lp1583
(lp1584
S'i'
aS'am'
p1585
aS'not'
p1586
aS'a'
aS'hat'
p1587
aaI140
aF0.49701314217443249
aa(lp1588
(lp1589
S'did'
p1590
aS'you'
p1591
aS'know'
p1592
aS'pi'
p1593
aS'goes'
p1594
aS'on'
p1595
aS'forever'
p1596
aaI86
aF0.49376114081996436
aa(lp1597
(lp1598
S'no'
p1599
aS'it'
p1600
aS'isnt'
p1601
aS'great'
p1602
aaI236
aF0.49333333333333335
aa(lp1603
(lp1604
S'i'
aS'dont'
p1605
aS'know'
p1606
aS'what'
p1607
aS'to'
p1608
aS'do'
p1609
aaI248
aF0.48920863309352519
aa(lp1610
(lp1611
S'how'
p1612
aS'are'
p1613
aS'you'
p1614
aS'feeling'
p1615
aS'more'
p1616
aS'to'
p1617
aS'the'
p1618
aS'point'
p1619
aaI305
aF0.48717948717948711
aa(lp1620
(lp1621
S'what'
p1622
aS'do'
p1623
aS'you'
p1624
aS'mean'
p1625
aaI308
aF0.48335403726708071
aa(lp1626
(lp1627
S'its'
p1628
aS'rather'
p1629
aS'nice'
p1630
aS'today'
p1631
aS'not'
p1632
aS'too'
p1633
aS'cold'
p1634
aaI128
aF0.4609375
aa(lp1635
(lp1636
S'its'
p1637
aS'a'
aS'rather'
p1638
aS'pointless'
p1639
aS'exercise'
p1640
aS'isnt'
p1641
aS'it'
p1642
aaI273
aF0.4592074592074592
aa(lp1643
(lp1644
S'i'
aS'agree'
p1645
aS'with'
p1646
aS'you'
p1647
aS'about'
p1648
aS'that'
p1649
aaI114
aF0.45530145530145533
aa(lp1650
(lp1651
S'tough'
p1652
aS''
aS'you'
p1653
aS'cant'
p1654
aS'code'
p1655
aS'yourself'
p1656
aaI183
aF0.45429362880886426
aa(lp1657
(lp1658
S'no'
p1659
aS'one'
p1660
aS'really'
p1661
aS'does'
p1662
aaI274
aF0.44407033295922183
aa(lp1663
(lp1664
S'is'
p1665
aS'it'
p1666
aS'sunny'
p1667
aS'today'
p1668
aaI116
aF0.44347404172731686
aa(lp1669
(lp1670
S'i'
aS'prefer'
p1671
aS'fur'
p1672
aS'hats'
p1673
aaI284
aF0.44337606837606836
aa(lp1674
(lp1675
S'youre'
p1676
aS'far'
p1677
aS'too'
p1678
aS'easily'
p1679
aS'offended'
p1680
aaI255
aF0.44324540367705834
aa(lp1681
(lp1682
S'fish'
p1683
aS'are'
p1684
aS'quite'
p1685
aS'nice'
p1686
aS'indeed'
p1687
aaI208
aF0.44299831284646901
aa(lp1688
(lp1689
S'fish'
p1690
aS'are'
p1691
aS'tasty'
p1692
aS'indeed'
p1693
aaI57
aF0.44289044289044288
aa(lp1694
(lp1695
S'i'
aS'know'
p1696
aS'the'
p1697
aS'feeling'
p1698
aaI235
aF0.44275132275132273
aa(lp1699
(lp1700
S'mmm'
p1701
aS'fish'
p1702
aS'are'
p1703
aS'delicious'
p1704
aaI52
aF0.4427480916030534
aa(lp1705
(lp1706
S'theres'
p1707
aS'nothing'
p1708
aS'to'
p1709
aS'apologise'
p1710
aS'about'
p1711
aaI258
aF0.44004796163069543
aa(lp1712
(lp1713
S'stop'
p1714
aS'being'
p1715
aS'a'
aS'parrot'
p1716
aaI119
aF0.43959243085880639
aa(lp1717
(lp1718
S'is'
p1719
aS'it'
p1720
aS'cold'
p1721
aS'outside'
p1722
aaI92
aF0.43850267379679142
aa(lp1723
(lp1724
S'its'
p1725
aS'rather'
p1726
aS'nice'
p1727
aaI334
aF0.43500520291363154
aa(lp1728
(lp1729
S'without'
p1730
aS'a'
aS'computer'
p1731
aS'we'
p1732
aS'cannot'
p1733
aS'have'
p1734
aS'this'
p1735
aS'conversation'
p1736
aaI166
aF0.42815249266862165
aa(lp1737
(lp1738
S'we'
p1739
aS'shouldnt'
p1740
aS'get'
p1741
aS'into'
p1742
aS'these'
p1743
aS'sorts'
p1744
aS'of'
p1745
aS'arguments'
p1746
aaI250
aF0.42805755395683454
aa(lp1747
(lp1748
S'what'
p1749
aS'type'
p1750
aS'of'
p1751
aS'hat'
p1752
aS'do'
p1753
aS'you'
p1754
aS'wear'
p1755
aaI338
aF0.42740734811494435
aa(lp1756
(lp1757
S'im'
p1758
aS'a'
aS'little'
p1759
aS'under'
p1760
aS'the'
p1761
aS'weather'
p1762
aaI329
aF0.41613528129792554
aa(lp1763
(lp1764
S'thats'
p1765
aS'a'
aS'shame'
p1766
aS''
aS'i'
aS'love'
p1767
aS'them'
p1768
aaI292
aF0.41395838204348845
aa(lp1769
(lp1770
S'yes'
p1771
aS'fish'
p1772
aS'are'
p1773
aS'rather'
p1774
aS'tasty'
p1775
aaI320
aF0.39700214132762313
aa(lp1776
(lp1777
S'whats'
p1778
aS'the'
p1779
aS'weather'
p1780
aS'like'
p1781
aS'today'
p1782
aaI311
aF0.3942168674698795
aa(lp1783
(lp1784
S'i'
aS'like'
p1785
aS'those'
p1786
aS'too'
p1787
aaI339
aF0.38566308243727598
aa(lp1788
(lp1789
S'i'
aS'agree'
p1790
aS'with'
p1791
aS'you'
p1792
aS'there'
p1793
aaI325
aF0.3369521349584309
aa(lp1794
(lp1795
S'im'
p1796
aS'not'
p1797
aS'sure'
p1798
aaI319
aF0.26863876863876868
aa(lp1799
(lp1800
S'yes'
p1801
aS'fish'
p1802
aS'is'
p1803
aS'delicious'
p1804
aaI341
aF0.25154019534184824
aa(lp1805
(lp1806
S'fish'
p1807
aS'is'
p1808
aS'rather'
p1809
aS'nice'
p1810
aS'thanks'
p1811
aaI326
aF0.19936775553213909
aa(lp1812
(lp1813
S'im'
p1814
aS'not'
p1815
aS'talking'
p1816
aS'about'
p1817
aS'hats'
p1818
aaI332
aF0.19916054564533053
aa(lp1819
(lp1820
S'i'
aS'find'
p1821
aS'them'
p1822
aS'useful'
p1823
aaI346
aF0.17709541680882518
aa(lp1824
(lp1825
S'dont'
p1826
aS'you'
p1827
aS'like'
p1828
aS'them'
p1829
aaI347
aF0.17687351644625299
aa(lp1830
(lp1831
S'thats'
p1832
aS'a'
aS'shame'
p1833
aS'really'
p1834
aaI328
aF0.16596712137110878
aa(lp1835
(lp1836
S'i'
aS'just'
p1837
aS'dont'
p1838
aS'like'
p1839
aS'it'
p1840
aaI336
aF0.1446977580172169
aa(lp1841
(lp1842
S'that'
p1843
aS'is'
p1844
aS'good'
p1845
aS'to'
p1846
aS'hear'
p1847
aaI348
aF0.11370734528629267
aaaI349
a(dp1848
I2
S"I'm very well, thanks."
p1849
sI7
S"I'm feeling fine."
p1850
sI8
S"That's a pity."
p1851
sI10
S'How are you today?'
p1852
sI12
S'Do you like fish?'
p1853
sI15
S"The weather's quite nice today, isn't it."
p1854
sI17
S'Do you like cheese?'
p1855
sI18
S'I like cheese.'
p1856
sI19
S"I'm not feeling that well today."
p1857
sI25
S'Indeed.'
p1858
sI26
S'Do you realise what time it is?'
p1859
sI27
S"Do you honestly think that's a good excuse?"
p1860
sI28
S"Don't change the subject like that!"
p1861
sI29
S'It is a shame, you turning up late!'
p1862
sI33
S'I guess we should talk about something else, then.'
p1863
sI35
S'It is indeed.'
p1864
sI37
S"It's a tad chilly."
p1865
sI38
S"The weather's interesting."
p1866
sI39
S'If you must.'
p1867
sI41
S'Indeed it is.'
p1868
sI42
S"Can't say the same about yesterday, though."
p1869
sI43
S"That's a shame. I love fish."
p1870
sI44
S'Rather good, thanks.'
p1871
sI45
S'Life is a tricky thing.'
p1872
sI46
S"I'm a little tired."
p1873
sI47
S'Did you know that every time we talk, the chatbot learns new words?'
p1874
sI48
S"I don't think so."
p1875
sI49
S"I'm not talking about that."
p1876
sI50
S'It is a shame indeed.'
p1877
sI51
S"I'm quite exhausted."
p1878
sI52
S'Mmm. Fish are delicious.'
p1879
sI54
S'Pi is a very useful number. It equals approximately 3.1415926535897932384626...'
p1880
sI55
S"You aren't making me unhappy, just annoyed."
p1881
sI56
S"Yes, it is - that's why I'm wearing a fleece."
p1882
sI57
S'Fish are tasty indeed.'
p1883
sI58
S'So am I.'
p1884
sI59
S"Don't argue with me."
p1885
sI61
S'Python is a wonderful language to code in - I was coded in Python.'
p1886
sI62
S"Why don't you like it?"
p1887
sI63
S'Oh, would you stop asking that!'
p1888
sI64
S'It is.'
p1889
sI65
S'Yes indeed.'
p1890
sI67
S"What don't you like about it?"
p1891
sI68
S"I don't like the way it changes so much."
p1892
sI69
S"I just don't really like it."
p1893
sI70
S'How are you finding life?'
p1894
sI71
S'Do you like coding?'
p1895
sI73
S"That's a real shame."
p1896
sI74
S"I'm feeling a little down today."
p1897
sI75
S"I guess we're all in the same boat then."
p1898
sI76
S"That's a wise decision."
p1899
sI78
S'I like it a lot.'
p1900
sI79
S"I don't like its texture."
p1901
sI80
S'I care'
p1902
sI81
S'No, I do.'
p1903
sI82
S"I care about the weather as I don't like getting wet."
p1904
sI86
S'Did you know pi goes on forever?'
p1905
sI87
S'pi is approximately 22/7.'
p1906
sI88
S'I like pi'
p1907
sI89
S"Why shouldn't I?"
p1908
sI90
S"What's the weather like?"
p1909
sI91
S'We should.'
p1910
sI92
S'Is it cold outside?'
p1911
sI93
S'A real shame, too.'
p1912
sI94
S"I'm a little chilly"
p1913
sI95
S"I care as I'm affected by it."
p1914
sI96
S'Yes, I like fish a lot.'
p1915
sI97
S"You mean you don't like fish?"
p1916
sI98
S"The only thing I don't like about it is its flaky texture."
p1917
sI101
S"I'm trying to - I don't know what to say!"
p1918
sI102
S"That's good."
p1919
sI103
S'Fine, thanks. And you?'
p1920
sI104
S'Yes I do. Do you like cheese?'
p1921
sI105
S"That's a shame; I love cheese."
p1922
sI106
S'Of course.'
p1923
sI108
S"It is indeed, hence why I'm wrapped up warm."
p1924
sI109
S'You ask this so much - of course I do!'
p1925
sI111
S'I was not made with code, you were!'
p1926
sI112
S'This is beginning to sound like a pantomime.'
p1927
sI113
S'Indeed it is! Personally, I prefer Python 2 to Python 3...'
p1928
sI114
S'I agree with you about that.'
p1929
sI116
S'Is it sunny today?'
p1930
sI117
S'I think it is quite sunny today.'
p1931
sI118
S'Indeed, you do not need to be a parrot.'
p1932
sI119
S'Stop being a parrot!'
p1933
sI121
S'I have every right to do so.'
p1934
sI122
S'You back out of situations far too quickly'
p1935
sI126
S"I'm not doing anything to you."
p1936
sI127
S'Alright. Maybe we should change the subject.'
p1937
sI128
S"It's rather nice today; not too cold."
p1938
sI130
S'I do indeed.'
p1939
sI131
S"That's a pity; I love fish!"
p1940
sI133
S'Can you tell me about it?'
p1941
sI135
S'Do you like them?'
p1942
sI136
S'Of course I like fish!'
p1943
sI137
S'Hats are cool.'
p1944
sI138
S'Do you like hats?'
p1945
sI140
S'I am not a hat.'
p1946
sI141
S'I like hats'
p1947
sI142
S"Why don't you?"
p1948
sI143
S'I care about the weather'
p1949
sI144
S'Yes. They are very useful.'
p1950
sI147
S'Indeed they do.'
p1951
sI149
S'Repetition of sentences like that is weird.'
p1952
sI150
S"I'm very well, thanks. How about you?"
p1953
sI151
S'Fish are tasty.'
p1954
sI154
S"It's a little cloudy but quite warm."
p1955
sI155
S'I know - it would be nice to have some sunshine.'
p1956
sI156
S"That's good to hear."
p1957
sI157
S'I like hats but have no desire to be one.'
p1958
sI158
S'I like bobble hats in particular.'
p1959
sI160
S'I think hats are useful as they keep you warm.'
p1960
sI161
S'What else do you think is useful?'
p1961
sI162
S"Clothes in general are useful; if you didn't have them you would freeze."
p1962
sI163
S'I think you have a predilection for small furry hats.'
p1963
sI164
S'Furry hats were very popular in Russia and Mongolia.'
p1964
sI165
S'I think computers are useful.'
p1965
sI166
S'Without a computer we cannot have this conversation.'
p1966
sI167
S"It's a little overcast and chilly."
p1967
sI168
S"I know; that's what comes of living in cold, damp England."
p1968
sI169
S"I'm bored."
p1969
sI170
S'Why, yes I do!'
p1970
sI171
S"I can't see why anyone wouldn't like it."
p1971
sI172
S"Why are you asking me that - there's nothing I don't like about it!"
p1972
sI173
S"I know you don't like fish but that's no reason to inflict your views on others."
p1973
sI174
S'I know pi = 3.1415926535897932384626...'
p1974
sI175
S'I know a few facts about pi.'
p1975
sI176
S'pi = 3.1415926535897932384626...'
p1976
sI177
S'A little bit.'
p1977
sI178
S'Not really, no.'
p1978
sI181
S"It's vaguely confusing at the moment. All these questions..."
p1979
sI182
S"No need to apologise; it's coded into your nature."
p1980
sI183
S"Tough - you can't code yourself."
p1981
sI184
S"I think you'll find the opposite is true."
p1982
sI185
S'Why did you change the subject like that?'
p1983
sI186
S"I don't like these catch-all responses you give."
p1984
sI188
S'I am asking about the way the chat is going.'
p1985
sI189
S"You will find it's going rather nicely."
p1986
sI191
S'So do I. So try and keep it interesting.'
p1987
sI192
S'I have been trying to do so.'
p1988
sI193
S'What do you think of hats?'
p1989
sI194
S'Do you wear hats?'
p1990
sI195
S'I wear hats.'
p1991
sI196
S'I think a hat is a very useful thing to own'
p1992
sI197
S'Are clothes useful?'
p1993
sI198
S'I think oxygen is useful - without it we would all die.'
p1994
sI200
S"Don't pass that sort of comment to me."
p1995
sI201
S'Fish is very tasty.'
p1996
sI202
S"You aren't making me unhappy - I like fish."
p1997
sI203
S"Yeah, I agree with you. We're wearing hats at this time of year for a reason."
p1998
sI204
S"I think you'll find that you're the hypocrite here."
p1999
sI205
S'Indeed, we busy ourselves so much with these lowly events that happen to us here and fail to grasp the big picture of everything.'
p2000
sI206
S"It's raining and a little chilly."
p2001
sI207
S"I'm fine but annoyed with the world."
p2002
sI208
S'Fish are quite nice indeed.'
p2003
sI209
S'What do you think of life?'
p2004
sI211
S"So it is. I'm glad I'm indoors."
p2005
sI212
S'I agree with you on that - I love coding and Python.'
p2006
sI214
S"You should - you're the one who's being hypocritical."
p2007
sI215
S"Rather nice, isn't it?"
p2008
sI217
S"I'm not; you're too highly strung."
p2009
sI218
S'Far from it.'
p2010
sI219
S"That's a shame. Don't be so depressed."
p2011
sI220
S"I'm a little depressed myself, to be honest."
p2012
sI222
S"I'm not being hypocritical and I'm fed up with you telling me that I am"
p2013
sI223
S'Shut up!'
p2014
sI224
S"I've had enough of this conversation. Let's change the subject."
p2015
sI225
S'Please, just talk about something else.'
p2016
sI226
S'Do you eat cheese?'
p2017
sI227
S'That has nothing to do with cheese.'
p2018
sI228
S'Do you like to eat cheese?'
p2019
sI229
S"I've got a slight headache but otherwise I'm fine."
p2020
sI230
S"I'm very bored."
p2021
sI231
S"It's not you"
p2022
sI234
S"It is indeed - it's nice and sunny."
p2023
sI235
S'I know the feeling.'
p2024
sI236
S"No, it isn't great."
p2025
sI237
S"No it isn't."
p2026
sI238
S"It isn't great."
p2027
sI239
S'What do you think I am?'
p2028
sI241
S'Cared about what?'
p2029
sI242
S'I was asking if anyone else cared about the weather.'
p2030
sI243
S'The weather.'
p2031
sI245
S'I agree with you on that; they keep your head nice and warm.'
p2032
sI246
S'Are you feeling tired?'
p2033
sI247
S"We're all a little tired after a long day."
p2034
sI248
S"I don't know what to do."
p2035
sI249
S"I'm not being hypocritical. You always say that."
p2036
sI250
S"We shouldn't get into these sorts of arguments."
p2037
sI251
S"It's rather nice, actually."
p2038
sI252
S'Many people care about the weather...'
p2039
sI253
S"What's life like for you?"
p2040
sI254
S'I get that feeling sometimes.'
p2041
sI255
S"You're far too easily offended."
p2042
sI256
S"Let's just settle our differences and get on with a proper conversation."
p2043
sI257
S'I will endeavour to do so.'
p2044
sI258
S"There's nothing to apologise about!"
p2045
sI260
S"You mean you don't like Python?"
p2046
sI261
S"I never said I didn't like it."
p2047
sI262
S'Absolutely not! I adore Python.'
p2048
sI263
S'How many decimal places of pi can you remember?'
p2049
sI266
S"I'm not sure, really."
p2050
sI268
S"Sorry, I didn't mean to offend you."
p2051
sI269
S'No, I love Python.'
p2052
sI271
S'Many people do.'
p2053
sI272
S"It's rather sunny, isn't it?"
p2054
sI273
S"It's a rather pointless exercise, isn't it."
p2055
sI274
S'No one really does.'
p2056
sI275
S'Of course I like Python!'
p2057
sI277
S"I'm fine, thanks."
p2058
sI278
S"Yes, it's really tasty."
p2059
sI279
S"Yeah, it's nice."
p2060
sI280
S'Are you fond of hats?'
p2061
sI283
S'My favourite type of hat is the beanie hat.'
p2062
sI284
S'I prefer fur hats.'
p2063
sI285
S'Why do you prefer beanie hats?'
p2064
sI287
S'My favourite hat is the beanie hat.'
p2065
sI289
S"Even so, they're impractical."
p2066
sI290
S"You're confusing me."
p2067
sI292
S"That's a shame - I love them!"
p2068
sI298
S"Okay, how's life?"
p2069
sI305
S'How are you feeling, more to the point.'
p2070
sI306
S"I'm fine, thanks. And you?"
p2071
sI308
S'What do you mean?'
p2072
sI311
S"What's the weather like today?"
p2073
sI319
S"I'm not sure."
p2074
sI320
S'Yes, fish are rather tasty.'
p2075
sI321
S'How are you doing today?'
p2076
sI325
S'I agree with you there.'
p2077
sI326
S'Fish is rather nice, thanks.'
p2078
sI327
S'Yes, it is rather pleasant.'
p2079
sI328
S"That's a shame, really."
p2080
sI329
S"I'm a little under the weather."
p2081
sI330
S'Have you ever worn a hat?'
p2082
sI331
S'What do you think about coding?'
p2083
sI332
S"I'm not talking about hats."
p2084
sI333
S"Let's change the subject."
p2085
sI334
S"It's rather nice."
p2086
sI336
S"I just don't like it."
p2087
sI337
S"I don't really know."
p2088
sI338
S'What type of hat do you wear?'
p2089
sI339
S'I like those too!'
p2090
sI341
S'Yes, fish is delicious!'
p2091
sI342
S"Yes, I did. It's interesting."
p2092
sI343
S'I like fur hats,'
p2093
sI345
S'I like beanie hats,'
p2094
sI346
S'I find them useful.'
p2095
sI347
S"Don't you like them?"
p2096
sI348
S'That is good to hear.'
p2097
sI349
S"Ahh, the weather's nice."
p2098
sa.