(lp1
(lp2
(lp3
(lp4
S'hello'
p5
aa(lp6
S'hi'
p7
aaI0
aa(lp8
(lp9
g7
aa(lp10
g5
aaI1
aa(lp11
(lp12
S'how'
p13
aS'are'
p14
aS'you'
p15
aa(lp16
S'im'
p17
aS'very'
p18
aS'well'
p19
aS'thanks'
p20
aS'for'
p21
aS'asking'
p22
aS'and'
p23
aS'you'
p24
aaI2
aa(lp25
(lp26
S'how'
p27
aS'are'
p28
aS'you'
p29
aS'feeling'
p30
aa(lp31
S'a'
aS'little'
p32
aS'down'
p33
aaI3
aa(lp34
(lp35
S'im'
p36
aS'fine'
p37
aS'thanks'
p38
aa(lp39
S'whats'
p40
aS'the'
p41
aS'weather'
p42
aS'like'
p43
aS'today'
p44
aaI4
aa(lp45
g31
a(lp46
S'do'
p47
aS'you'
p48
aS'like'
p49
aS'fish'
p50
aaI5
aa(lp51
g39
a(lp52
S'its'
p53
aS'drizzling'
p54
aS'and'
p55
aS'a'
aS'little'
p56
aS'cold'
p57
aaI6
aa(lp58
g46
a(lp59
S'indeed'
p60
aS'i'
aS'do'
p61
aaI7
aa(lp62
(lp63
S'yes'
p64
aS'indeed'
p65
aa(lp66
S'whats'
p67
aS'the'
p68
aS'weather'
p69
aS'like'
p70
aS'today'
p71
aaI8
aa(lp72
(lp73
S'same'
p74
aS'here'
p75
aa(lp76
S'im'
p77
aS'probably'
p78
aS'going'
p79
aS'to'
p80
aS'need'
p81
aS'a'
aS'coat'
p82
aS'if'
p83
aS'i'
aS'go'
p84
aS'out'
p85
aaI9
aa(lp86
(lp87
S'thats'
p88
aS'a'
aS'shame'
p89
aa(lp90
S'i'
aS'know'
p91
aS'right'
p92
aaI10
aaa(dp93
I0
(lp94
S'Hello'
p95
aS'Hi'
p96
asI1
(lp97
g96
ag95
asI2
(lp98
S'How are you?'
p99
aS"I'm very well, thanks for asking. And you?"
p100
asI3
(lp101
S'How are you feeling?'
p102
aS'A little down.'
p103
asI4
(lp104
S"I'm fine, thanks."
p105
aS"What's the weather like today?"
p106
asI5
(lp107
g103
aS'Do you like fish?'
p108
asI6
(lp109
g106
aS"It's drizzling and a little cold."
p110
asI7
(lp111
g108
aS'Indeed I do.'
p112
asI8
(lp113
S'Yes, indeed.'
p114
aS"What's the weather like today?"
p115
asI9
(lp116
S'Same here.'
p117
aS"I'm probably going to need a coat if I go out."
p118
asI10
(lp119
S"That's a shame."
p120
aS'I know, right?'
p121
asaI10
a.