(lp1
(lp2
(lp3
S'hello'
p4
aI2
aa(lp5
S'hi'
p6
aI2
aa(lp7
S'how'
p8
aI2
aa(lp9
S'are'
p10
aI2
aa(lp11
S'you'
p12
aI5
aa(lp13
S'im'
p14
aI3
aa(lp15
S'very'
p16
aI1
aa(lp17
S'well'
p18
aI1
aa(lp19
S'thanks'
p20
aI2
aa(lp21
S'for'
p22
aI1
aa(lp23
S'asking'
p24
aI1
aa(lp25
S'and'
p26
aI2
aa(lp27
S'feeling'
p28
aI1
aa(lp29
S'a'
aI5
aa(lp30
S'little'
p31
aI3
aa(lp32
S'down'
p33
aI2
aa(lp34
S'fine'
p35
aI1
aa(lp36
S'whats'
p37
aI3
aa(lp38
S'the'
p39
aI3
aa(lp40
S'weather'
p41
aI3
aa(lp42
S'like'
p43
aI5
aa(lp44
S'today'
p45
aI3
aa(lp46
S'do'
p47
aI3
aa(lp48
S'fish'
p49
aI2
aa(lp50
S'its'
p51
aI1
aa(lp52
S'drizzling'
p53
aI1
aa(lp54
S'cold'
p55
aI1
aa(lp56
S'indeed'
p57
aI2
aa(lp58
S'i'
aI3
aa(lp59
S'yes'
p60
aI1
aa(lp61
S'same'
p62
aI1
aa(lp63
S'here'
p64
aI1
aa(lp65
S'probably'
p66
aI1
aa(lp67
S'going'
p68
aI1
aa(lp69
S'to'
p70
aI1
aa(lp71
S'need'
p72
aI1
aa(lp73
S'coat'
p74
aI1
aa(lp75
S'if'
p76
aI1
aa(lp77
S'go'
p78
aI1
aa(lp79
S'out'
p80
aI1
aa(lp81
S'thats'
p82
aI1
aa(lp83
S'shame'
p84
aI1
aa(lp85
S'know'
p86
aI1
aa(lp87
S'right'
p88
aI1
aaa.