(lp1
(lp2
(lp3
(lp4
S'its'
p5
aS'raining'
p6
aS'quite'
p7
aS'heavily'
p8
aaI13
aF0.22222222222222221
aa(lp9
(lp10
S'i'
aS'know'
p11
aS'right'
p12
aaI14
aF0.5
aa(lp13
(lp14
S'indeed'
p15
aS'i'
aS'do'
p16
aaI9
aF0.55584415584415581
aa(lp17
(lp18
S'im'
p19
aS'very'
p20
aS'well'
p21
aS'thanks'
p22
aS'for'
p23
aS'asking'
p24
aS'and'
p25
aS'you'
p26
aaI2
aF1.0666666666666667
aa(lp27
(lp28
S'its'
p29
aS'drizzling'
p30
aS'and'
p31
aS'a'
aS'little'
p32
aS'cold'
p33
aaI7
aF1.0833333333333333
aa(lp34
(lp35
S'im'
p36
aS'probably'
p37
aS'going'
p38
aS'to'
p39
aS'need'
p40
aS'a'
aS'coat'
p41
aS'if'
p42
aS'i'
aS'go'
p43
aS'out'
p44
aaI12
aF1.28
aaaI14
a(dp45
I2
S"I'm very well, thanks for asking. And you?"
p46
sI7
S"It's drizzling and a little cold."
p47
sI9
S'Indeed I do.'
p48
sI12
S"I'm probably going to need a coat if I go out."
p49
sI13
S"It's raining quite heavily."
p50
sI14
S'I know, right?'
p51
sa.